<?xml version="1.0" encoding="utf-8"?>
<?xml-stylesheet type="text/xsl" href="pdml2html.xsl"?>
<!-- You can find pdml2html.xsl in /usr/share/wireshark or at https://code.wireshark.org/review/gitweb?p=wireshark.git;a=blob_plain;f=pdml2html.xsl. -->
<pdml version="0" creator="wireshark/3.2.3" time="Fri Jan 30 21:42:54 2026" capture_file="./pcaps/ethernet.pcap">
<packet>
  <proto name="geninfo" pos="0" showname="General information" size="158">
    <field name="num" pos="0" show="1" showname="Number" value="1" size="158"/>
    <field name="len" pos="0" show="158" showname="Frame Length" value="9e" size="158"/>
    <field name="caplen" pos="0" show="158" showname="Captured Length" value="9e" size="158"/>
    <field name="timestamp" pos="0" show="Dec  3, 2003 23:34:30.725473000 CST" showname="Captured Time" value="1070465670.725473000" size="158"/>
  </proto>
  <proto name="frame" showname="Frame 1: 158 bytes on wire (1264 bits), 158 bytes captured (1264 bits)" size="158" pos="0">
    <field name="frame.encap_type" showname="Encapsulation type: Ethernet (1)" size="0" pos="0" show="1"/>
    <field name="frame.time" showname="Arrival Time: Dec  3, 2003 23:34:30.725473000 CST" size="0" pos="0" show="Dec  3, 2003 23:34:30.725473000 CST"/>
    <field name="frame.offset_shift" showname="Time shift for this packet: 0.000000000 seconds" size="0" pos="0" show="0.000000000"/>
    <field name="frame.time_epoch" showname="Epoch Time: 1070465670.725473000 seconds" size="0" pos="0" show="1070465670.725473000"/>
    <field name="frame.time_delta" showname="Time delta from previous captured frame: 0.000000000 seconds" size="0" pos="0" show="0.000000000"/>
    <field name="frame.time_delta_displayed" showname="Time delta from previous displayed frame: 0.000000000 seconds" size="0" pos="0" show="0.000000000"/>
    <field name="frame.time_relative" showname="Time since reference or first frame: 0.000000000 seconds" size="0" pos="0" show="0.000000000"/>
    <field name="frame.number" showname="Frame Number: 1" size="0" pos="0" show="1"/>
    <field name="frame.len" showname="Frame Length: 158 bytes (1264 bits)" size="0" pos="0" show="158"/>
    <field name="frame.cap_len" showname="Capture Length: 158 bytes (1264 bits)" size="0" pos="0" show="158"/>
    <field name="frame.marked" showname="Frame is marked: False" size="0" pos="0" show="0"/>
    <field name="frame.ignored" showname="Frame is ignored: False" size="0" pos="0" show="0"/>
    <field name="frame.protocols" showname="Protocols in frame: eth:ethertype:ip:tcp:enip:cip:cipcm" size="0" pos="0" show="eth:ethertype:ip:tcp:enip:cip:cipcm"/>
  </proto>
  <proto name="eth" showname="Ethernet II, Src: Rockwell_05:68:b8 (00:00:bc:05:68:b8), Dst: Rockwell_08:67:3e (00:00:bc:08:67:3e)" size="14" pos="0">
    <field name="eth.dst" showname="Destination: Rockwell_08:67:3e (00:00:bc:08:67:3e)" size="6" pos="0" show="00:00:bc:08:67:3e" value="0000bc08673e">
      <field name="eth.dst_resolved" showname="Destination (resolved): Rockwell_08:67:3e" hide="yes" size="6" pos="0" show="Rockwell_08:67:3e" value="0000bc08673e"/>
      <field name="eth.dst.oui" showname="Destination OUI: 00:00:bc (Rockwell Automation)" hide="yes" size="3" pos="0" show="188" value="0000bc"/>
      <field name="eth.dst.oui_resolved" showname="Destination OUI (resolved): Rockwell Automation" hide="yes" size="6" pos="0" show="Rockwell Automation" value="0000bc08673e"/>
      <field name="eth.addr" showname="Address: Rockwell_08:67:3e (00:00:bc:08:67:3e)" size="6" pos="0" show="00:00:bc:08:67:3e" value="0000bc08673e"/>
      <field name="eth.addr_resolved" showname="Address (resolved): Rockwell_08:67:3e" hide="yes" size="6" pos="0" show="Rockwell_08:67:3e" value="0000bc08673e"/>
      <field name="eth.addr.oui" showname="Address OUI: 00:00:bc (Rockwell Automation)" hide="yes" size="3" pos="0" show="188" value="0000bc"/>
      <field name="eth.addr.oui_resolved" showname="Address OUI (resolved): Rockwell Automation" hide="yes" size="6" pos="0" show="Rockwell Automation" value="0000bc08673e"/>
      <field name="eth.dst.lg" showname=".... ..0. .... .... .... .... = LG bit: Globally unique address (factory default)" size="3" pos="0" show="0" value="0" unmaskedvalue="0000bc"/>
      <field name="eth.lg" showname=".... ..0. .... .... .... .... = LG bit: Globally unique address (factory default)" hide="yes" size="3" pos="0" show="0" value="0" unmaskedvalue="0000bc"/>
      <field name="eth.dst.ig" showname=".... ...0 .... .... .... .... = IG bit: Individual address (unicast)" size="3" pos="0" show="0" value="0" unmaskedvalue="0000bc"/>
      <field name="eth.ig" showname=".... ...0 .... .... .... .... = IG bit: Individual address (unicast)" hide="yes" size="3" pos="0" show="0" value="0" unmaskedvalue="0000bc"/>
    </field>
    <field name="eth.src" showname="Source: Rockwell_05:68:b8 (00:00:bc:05:68:b8)" size="6" pos="6" show="00:00:bc:05:68:b8" value="0000bc0568b8">
      <field name="eth.src_resolved" showname="Source (resolved): Rockwell_05:68:b8" hide="yes" size="6" pos="6" show="Rockwell_05:68:b8" value="0000bc0568b8"/>
      <field name="eth.src.oui" showname="Source OUI: 00:00:bc (Rockwell Automation)" hide="yes" size="3" pos="6" show="188" value="0000bc"/>
      <field name="eth.src.oui_resolved" showname="Source OUI (resolved): Rockwell Automation" hide="yes" size="6" pos="6" show="Rockwell Automation" value="0000bc0568b8"/>
      <field name="eth.addr" showname="Address: Rockwell_05:68:b8 (00:00:bc:05:68:b8)" size="6" pos="6" show="00:00:bc:05:68:b8" value="0000bc0568b8"/>
      <field name="eth.addr_resolved" showname="Address (resolved): Rockwell_05:68:b8" hide="yes" size="6" pos="6" show="Rockwell_05:68:b8" value="0000bc0568b8"/>
      <field name="eth.addr.oui" showname="Address OUI: 00:00:bc (Rockwell Automation)" hide="yes" size="3" pos="6" show="188" value="0000bc"/>
      <field name="eth.addr.oui_resolved" showname="Address OUI (resolved): Rockwell Automation" hide="yes" size="6" pos="6" show="Rockwell Automation" value="0000bc0568b8"/>
      <field name="eth.src.lg" showname=".... ..0. .... .... .... .... = LG bit: Globally unique address (factory default)" size="3" pos="6" show="0" value="0" unmaskedvalue="0000bc"/>
      <field name="eth.lg" showname=".... ..0. .... .... .... .... = LG bit: Globally unique address (factory default)" hide="yes" size="3" pos="6" show="0" value="0" unmaskedvalue="0000bc"/>
      <field name="eth.src.ig" showname=".... ...0 .... .... .... .... = IG bit: Individual address (unicast)" size="3" pos="6" show="0" value="0" unmaskedvalue="0000bc"/>
      <field name="eth.ig" showname=".... ...0 .... .... .... .... = IG bit: Individual address (unicast)" hide="yes" size="3" pos="6" show="0" value="0" unmaskedvalue="0000bc"/>
    </field>
    <field name="eth.type" showname="Type: IPv4 (0x0800)" size="2" pos="12" show="0x00000800" value="0800"/>
    <field name="eth.fcs" showname="Frame check sequence: 0xc0dbe4e4 [unverified]" size="4" pos="154" show="0xc0dbe4e4" value="c0dbe4e4"/>
    <field name="eth.fcs.status" showname="FCS Status: Unverified" size="0" pos="154" show="2"/>
  </proto>
  <proto name="ip" showname="Internet Protocol Version 4, Src: 192.168.100.28, Dst: 192.168.100.36" size="20" pos="14">
    <field name="ip.version" showname="0100 .... = Version: 4" size="1" pos="14" show="4" value="4" unmaskedvalue="45"/>
    <field name="ip.hdr_len" showname=".... 0101 = Header Length: 20 bytes (5)" size="1" pos="14" show="20" value="45"/>
    <field name="ip.dsfield" showname="Differentiated Services Field: 0x00 (DSCP: CS0, ECN: Not-ECT)" size="1" pos="15" show="0x00000000" value="00">
      <field name="ip.dsfield.dscp" showname="0000 00.. = Differentiated Services Codepoint: Default (0)" size="1" pos="15" show="0" value="0" unmaskedvalue="00"/>
      <field name="ip.dsfield.ecn" showname=".... ..00 = Explicit Congestion Notification: Not ECN-Capable Transport (0)" size="1" pos="15" show="0" value="0" unmaskedvalue="00"/>
    </field>
    <field name="ip.len" showname="Total Length: 140" size="2" pos="16" show="140" value="008c"/>
    <field name="ip.id" showname="Identification: 0x4ccf (19663)" size="2" pos="18" show="0x00004ccf" value="4ccf"/>
    <field name="ip.flags" showname="Flags: 0x0000" size="2" pos="20" show="0x00000000" value="0000">
      <field name="ip.flags.rb" showname="0... .... .... .... = Reserved bit: Not set" size="2" pos="20" show="0" value="0" unmaskedvalue="0000"/>
      <field name="ip.flags.df" showname=".0.. .... .... .... = Don&#x27;t fragment: Not set" size="2" pos="20" show="0" value="0" unmaskedvalue="0000"/>
      <field name="ip.flags.mf" showname="..0. .... .... .... = More fragments: Not set" size="2" pos="20" show="0" value="0" unmaskedvalue="0000"/>
    </field>
    <field name="ip.frag_offset" showname="Fragment offset: 0" size="2" pos="20" show="0" value="0000"/>
    <field name="ip.ttl" showname="Time to live: 64" size="1" pos="22" show="64" value="40"/>
    <field name="ip.proto" showname="Protocol: TCP (6)" size="1" pos="23" show="6" value="06"/>
    <field name="ip.checksum" showname="Header checksum: 0xe40b [validation disabled]" size="2" pos="24" show="0x0000e40b" value="e40b"/>
    <field name="ip.checksum.status" showname="Header checksum status: Unverified" size="0" pos="24" show="2"/>
    <field name="ip.src" showname="Source: 192.168.100.28" size="4" pos="26" show="192.168.100.28" value="c0a8641c"/>
    <field name="ip.addr" showname="Source or Destination Address: 192.168.100.28" hide="yes" size="4" pos="26" show="192.168.100.28" value="c0a8641c"/>
    <field name="ip.src_host" showname="Source Host: 192.168.100.28" hide="yes" size="4" pos="26" show="192.168.100.28" value="c0a8641c"/>
    <field name="ip.host" showname="Source or Destination Host: 192.168.100.28" hide="yes" size="4" pos="26" show="192.168.100.28" value="c0a8641c"/>
    <field name="ip.dst" showname="Destination: 192.168.100.36" size="4" pos="30" show="192.168.100.36" value="c0a86424"/>
    <field name="ip.addr" showname="Source or Destination Address: 192.168.100.36" hide="yes" size="4" pos="30" show="192.168.100.36" value="c0a86424"/>
    <field name="ip.dst_host" showname="Destination Host: 192.168.100.36" hide="yes" size="4" pos="30" show="192.168.100.36" value="c0a86424"/>
    <field name="ip.host" showname="Source or Destination Host: 192.168.100.36" hide="yes" size="4" pos="30" show="192.168.100.36" value="c0a86424"/>
  </proto>
  <proto name="tcp" showname="Transmission Control Protocol, Src Port: 4495, Dst Port: 44818, Seq: 1, Ack: 1, Len: 100" size="20" pos="34">
    <field name="tcp.srcport" showname="Source Port: 4495" size="2" pos="34" show="4495" value="118f"/>
    <field name="tcp.dstport" showname="Destination Port: 44818" size="2" pos="36" show="44818" value="af12"/>
    <field name="tcp.port" showname="Source or Destination Port: 4495" hide="yes" size="2" pos="34" show="4495" value="118f"/>
    <field name="tcp.port" showname="Source or Destination Port: 44818" hide="yes" size="2" pos="36" show="44818" value="af12"/>
    <field name="tcp.stream" showname="Stream index: 0" size="0" pos="34" show="0"/>
    <field name="tcp.len" showname="TCP Segment Len: 100" size="1" pos="46" show="100" value="50"/>
    <field name="tcp.seq" showname="Sequence number: 1    (relative sequence number)" size="4" pos="38" show="1" value="4da2dd48"/>
    <field name="tcp.seq_raw" showname="Sequence number (raw): 1302519112" size="4" pos="38" show="1302519112" value="4da2dd48"/>
    <field name="tcp.nxtseq" showname="Next sequence number: 101    (relative sequence number)" size="0" pos="34" show="101"/>
    <field name="tcp.ack" showname="Acknowledgment number: 1    (relative ack number)" size="4" pos="42" show="1" value="512b989f"/>
    <field name="tcp.ack_raw" showname="Acknowledgment number (raw): 1361811615" size="4" pos="42" show="1361811615" value="512b989f"/>
    <field name="tcp.hdr_len" showname="0101 .... = Header Length: 20 bytes (5)" size="1" pos="46" show="20" value="50"/>
    <field name="tcp.flags" showname="Flags: 0x018 (PSH, ACK)" size="2" pos="46" show="0x00000018" value="18" unmaskedvalue="5018">
      <field name="tcp.flags.res" showname="000. .... .... = Reserved: Not set" size="1" pos="46" show="0" value="0" unmaskedvalue="50"/>
      <field name="tcp.flags.ns" showname="...0 .... .... = Nonce: Not set" size="1" pos="46" show="0" value="0" unmaskedvalue="50"/>
      <field name="tcp.flags.cwr" showname=".... 0... .... = Congestion Window Reduced (CWR): Not set" size="1" pos="47" show="0" value="0" unmaskedvalue="18"/>
      <field name="tcp.flags.ecn" showname=".... .0.. .... = ECN-Echo: Not set" size="1" pos="47" show="0" value="0" unmaskedvalue="18"/>
      <field name="tcp.flags.urg" showname=".... ..0. .... = Urgent: Not set" size="1" pos="47" show="0" value="0" unmaskedvalue="18"/>
      <field name="tcp.flags.ack" showname=".... ...1 .... = Acknowledgment: Set" size="1" pos="47" show="1" value="1" unmaskedvalue="18"/>
      <field name="tcp.flags.push" showname=".... .... 1... = Push: Set" size="1" pos="47" show="1" value="1" unmaskedvalue="18"/>
      <field name="tcp.flags.reset" showname=".... .... .0.. = Reset: Not set" size="1" pos="47" show="0" value="0" unmaskedvalue="18"/>
      <field name="tcp.flags.syn" showname=".... .... ..0. = Syn: Not set" size="1" pos="47" show="0" value="0" unmaskedvalue="18"/>
      <field name="tcp.flags.fin" showname=".... .... ...0 = Fin: Not set" size="1" pos="47" show="0" value="0" unmaskedvalue="18"/>
      <field name="tcp.flags.str" showname="TCP Flags: \xc2\xb7\xc2\xb7\xc2\xb7\xc2\xb7\xc2\xb7\xc2\xb7\xc2\xb7AP\xc2\xb7\xc2\xb7\xc2\xb7" size="2" pos="46" show="\xc2\xb7\xc2\xb7\xc2\xb7\xc2\xb7\xc2\xb7\xc2\xb7\xc2\xb7AP\xc2\xb7\xc2\xb7\xc2\xb7" value="5018"/>
    </field>
    <field name="tcp.window_size_value" showname="Window size value: 16384" size="2" pos="48" show="16384" value="4000"/>
    <field name="tcp.window_size" showname="Calculated window size: 16384" size="2" pos="48" show="16384" value="4000"/>
    <field name="tcp.window_size_scalefactor" showname="Window size scaling factor: -1 (unknown)" size="2" pos="48" show="-1" value="4000"/>
    <field name="tcp.checksum" showname="Checksum: 0x34c7 [unverified]" size="2" pos="50" show="0x000034c7" value="34c7"/>
    <field name="tcp.checksum.status" showname="Checksum Status: Unverified" size="0" pos="50" show="2"/>
    <field name="tcp.urgent_pointer" showname="Urgent pointer: 0" size="2" pos="52" show="0" value="0000"/>
    <field name="tcp.analysis" showname="SEQ/ACK analysis" size="0" pos="34" show="" value="">
      <field name="tcp.analysis.bytes_in_flight" showname="Bytes in flight: 100" size="0" pos="34" show="100"/>
      <field name="tcp.analysis.push_bytes_sent" showname="Bytes sent since last PSH flag: 100" size="0" pos="34" show="100"/>
    </field>
    <field name="" show="Timestamps" size="0" pos="34">
      <field name="tcp.time_relative" showname="Time since first frame in this TCP stream: 0.000000000 seconds" size="0" pos="34" show="0.000000000"/>
      <field name="tcp.time_delta" showname="Time since previous frame in this TCP stream: 0.000000000 seconds" size="0" pos="34" show="0.000000000"/>
    </field>
    <field name="tcp.payload" showname="TCP payload (100 bytes)" size="100" pos="54" show="6f:00:4c:00:01:00:00:00:00:00:00:00:c0:a8:64:1c:00:00:40:7e:00:00:00:00:00:00:00:00:00:00:02:00:00:00:00:00:b2:00:3c:00:54:02:20:06:24:01:05:9b:00:00:00:00:00:00:00:00:0e:00:01:00:22:f5:13:00:02:00:00:00:10:27:00:00:1a:48:10:27:00:00:1a:28:01:09:34:04:00:00:00:00:00:00:00:00:20:04:24:06:2c:02:2c:01" value="6f004c000100000000000000c0a8641c0000407e00000000000000000000020000000000b2003c00540220062401059b00000000000000000e00010022f5130002000000102700001a48102700001a28010934040000000000000000200424062c022c01"/>
    <field name="tcp.pdu.size" showname="PDU Size: 100" size="100" pos="54" show="100" value="6f004c000100000000000000c0a8641c0000407e00000000000000000000020000000000b2003c00540220062401059b00000000000000000e00010022f5130002000000102700001a48102700001a28010934040000000000000000200424062c022c01"/>
  </proto>
  <proto name="enip" showname="EtherNet/IP (Industrial Protocol), Session: 0x00000001, Send RR Data" size="100" pos="54">
    <field name="" show="Encapsulation Header" size="24" pos="54" value="6f004c000100000000000000c0a8641c0000407e00000000">
      <field name="enip.command" showname="Command: Send RR Data (0x006f)" size="2" pos="54" show="0x0000006f" value="6f00"/>
      <field name="enip.length" showname="Length: 76" size="2" pos="56" show="76" value="4c00"/>
      <field name="enip.session" showname="Session Handle: 0x00000001" size="4" pos="58" show="0x00000001" value="01000000"/>
      <field name="enip.status" showname="Status: Success (0x00000000)" size="4" pos="62" show="0x00000000" value="00000000"/>
      <field name="enip.context" showname="Sender Context: c0a8641c0000407e" size="8" pos="66" show="c0:a8:64:1c:00:00:40:7e" value="c0a8641c0000407e"/>
      <field name="enip.options" showname="Options: 0x00000000" size="4" pos="74" show="0x00000000" value="00000000"/>
    </field>
    <field name="" show="Command Specific Data" size="76" pos="78" value="000000000000020000000000b2003c00540220062401059b00000000000000000e00010022f5130002000000102700001a48102700001a28010934040000000000000000200424062c022c01">
      <field name="enip.srrd.iface" showname="Interface Handle: CIP (0x00000000)" size="4" pos="78" show="0x00000000" value="00000000"/>
      <field name="enip.timeout" showname="Timeout: 0" size="2" pos="82" show="0" value="0000"/>
      <field name="enip.cpf.itemcount" showname="Item Count: 2" size="2" pos="84" show="2" value="0200">
        <field name="enip.cpf.typeid" showname="Type ID: Null Address Item (0x0000)" size="2" pos="86" show="0x00000000" value="0000">
          <field name="enip.cpf.length" showname="Length: 0" size="2" pos="88" show="0" value="0000"/>
        </field>
        <field name="enip.cpf.typeid" showname="Type ID: Unconnected Data Item (0x00b2)" size="2" pos="90" show="0x000000b2" value="b200">
          <field name="enip.cpf.length" showname="Length: 60" size="2" pos="92" show="60" value="3c00"/>
        </field>
      </field>
    </field>
  </proto>
  <proto name="cip" showname="Common Industrial Protocol" size="60" pos="94">
    <field name="cip.service" showname="Service: Unknown Service (0x54) (Request)" size="1" pos="94" show="0x00000054" value="54">
      <field name="cip.rr" showname="0... .... = Request/Response: Request (0x0)" size="1" pos="94" show="0x00000000" value="0" unmaskedvalue="54"/>
      <field name="cip.sc" showname=".101 0100 = Service: Unknown (0x54)" size="1" pos="94" show="0x00000054" value="54" unmaskedvalue="54"/>
    </field>
    <field name="cip.request_path_size" showname="Request Path Size: 2 words" size="1" pos="95" show="2" value="02"/>
    <field name="" show="Request Path: Connection Manager, Instance: 0x01" size="4" pos="96" value="20062401">
      <field name="cip.epath" showname="EPath: 20062401" hide="yes" size="4" pos="96" show="20:06:24:01" value="20062401"/>
      <field name="cip.path_segment" showname="Path Segment: 0x20 (8-Bit Class Segment)" size="2" pos="96" show="0x00000020" value="2006">
        <field name="cip.path_segment.type" showname="001. .... = Path Segment Type: Logical Segment (1)" size="1" pos="96" show="1" value="1" unmaskedvalue="20"/>
        <field name="cip.logical_segment.type" showname="...0 00.. = Logical Segment Type: Class ID (0)" size="1" pos="96" show="0" value="0" unmaskedvalue="20"/>
        <field name="cip.logical_segment.format" showname=".... ..00 = Logical Segment Format: 8-bit Logical Segment (0)" size="1" pos="96" show="0" value="0" unmaskedvalue="20"/>
        <field name="cip.class" showname="Class: Connection Manager (0x06)" size="1" pos="97" show="6" value="06"/>
      </field>
      <field name="cip.path_segment" showname="Path Segment: 0x24 (8-Bit Instance Segment)" size="2" pos="98" show="0x00000024" value="2401">
        <field name="cip.path_segment.type" showname="001. .... = Path Segment Type: Logical Segment (1)" size="1" pos="98" show="1" value="1" unmaskedvalue="24"/>
        <field name="cip.logical_segment.type" showname="...0 01.. = Logical Segment Type: Instance ID (1)" size="1" pos="98" show="1" value="1" unmaskedvalue="24"/>
        <field name="cip.logical_segment.format" showname=".... ..00 = Logical Segment Format: 8-bit Logical Segment (0)" size="1" pos="98" show="0" value="0" unmaskedvalue="24"/>
        <field name="cip.instance" showname="Instance: 0x01" size="1" pos="99" show="0x00000001" value="01"/>
      </field>
    </field>
  </proto>
  <proto name="cipcm" showname="CIP Connection Manager" size="60" pos="94">
    <field name="" show="Service: Forward Open (Request)" size="1" pos="94" value="54">
      <field name="cip.rr" showname="0... .... = Request/Response: Request (0x0)" size="1" pos="94" show="0x00000000" value="0" unmaskedvalue="54"/>
      <field name="cip.cm.sc" showname=".101 0100 = Service: Forward Open (0x54)" size="1" pos="94" show="0x00000054" value="54" unmaskedvalue="54"/>
    </field>
    <field name="" show="Command Specific Data" size="54" pos="100" value="059b00000000000000000e00010022f5130002000000102700001a48102700001a28010934040000000000000000200424062c022c01">
      <field name="cip.cm.priority" showname="...0 .... = Priority: 0" size="1" pos="100" show="0" value="0" unmaskedvalue="05"/>
      <field name="cip.cm.tick_time" showname=".... 0101 = Tick time: 5" size="1" pos="100" show="5" value="5" unmaskedvalue="05"/>
      <field name="cip.cm.timeout_tick" showname="Time-out ticks: 155" size="1" pos="101" show="155" value="9b"/>
      <field name="cip.cm.timeout" showname="Actual Time Out: 4960ms" size="2" pos="100" show="4960" value="059b"/>
      <field name="cip.cm.ot_connid" showname="O-&gt;T Network Connection ID: 0x00000000" size="4" pos="102" show="0x00000000" value="00000000"/>
      <field name="cip.cm.to_connid" showname="T-&gt;O Network Connection ID: 0x00000000" size="4" pos="106" show="0x00000000" value="00000000"/>
      <field name="cip.cm.conn_serial_num" showname="Connection Serial Number: 0x000e" size="2" pos="110" show="0x0000000e" value="0e00"/>
      <field name="cip.cm.vendor" showname="Originator Vendor ID: Rockwell Automation/Allen-Bradley (0x0001)" size="2" pos="112" show="1" value="0100"/>
      <field name="cip.cm.orig_serial_num" showname="Originator Serial Number: 0x0013f522" size="4" pos="114" show="0x0013f522" value="22f51300"/>
      <field name="cip.cm.timeout_multiplier" showname="Connection Timeout Multiplier: *16 (2)" size="1" pos="118" show="2" value="02"/>
      <field name="cip.reserved" showname="Reserved: 0x000000" size="3" pos="119" show="0x00000000" value="000000"/>
      <field name="cip.cm.otrpi" showname="O-&gt;T RPI: 10.000ms" size="4" pos="122" show="10000" value="10270000"/>
      <field name="cip.cm.ot_net_params" showname="O-&gt;T Network Connection Parameters: 0x481a" size="2" pos="126" show="0x0000481a" value="1a48">
        <field name="cip.cm.fwo.owner" showname="0... .... .... .... = Owner: Exclusive (0)" size="2" pos="126" show="0" value="0" unmaskedvalue="1a48"/>
        <field name="cip.cm.fwo.type" showname=".10. .... .... .... = Connection Type: Point to Point (2)" size="2" pos="126" show="2" value="2" unmaskedvalue="1a48"/>
        <field name="cip.cm.fwo.prio" showname=".... 10.. .... .... = Priority: Scheduled (2)" size="2" pos="126" show="2" value="2" unmaskedvalue="1a48"/>
        <field name="cip.cm.fwo.f_v" showname=".... ..0. .... .... = Connection Size Type: Fixed (0)" size="2" pos="126" show="0" value="0" unmaskedvalue="1a48"/>
        <field name="cip.cm.fwo.consize" showname=".... ...0 0001 1010 = Connection Size: 26 bytes" size="2" pos="126" show="26" value="1A" unmaskedvalue="1a48"/>
      </field>
      <field name="cip.cm.torpi" showname="T-&gt;O RPI: 10.000ms" size="4" pos="128" show="10000" value="10270000"/>
      <field name="cip.cm.to_net_params" showname="T-&gt;O Network Connection Parameters: 0x281a" size="2" pos="132" show="0x0000281a" value="1a28">
        <field name="cip.cm.fwo.owner" showname="0... .... .... .... = Owner: Exclusive (0)" size="2" pos="132" show="0" value="0" unmaskedvalue="1a28"/>
        <field name="cip.cm.fwo.type" showname=".01. .... .... .... = Connection Type: Multicast (1)" size="2" pos="132" show="1" value="1" unmaskedvalue="1a28"/>
        <field name="cip.cm.fwo.prio" showname=".... 10.. .... .... = Priority: Scheduled (2)" size="2" pos="132" show="2" value="2" unmaskedvalue="1a28"/>
        <field name="cip.cm.fwo.f_v" showname=".... ..0. .... .... = Connection Size Type: Fixed (0)" size="2" pos="132" show="0" value="0" unmaskedvalue="1a28"/>
        <field name="cip.cm.fwo.consize" showname=".... ...0 0001 1010 = Connection Size: 26 bytes" size="2" pos="132" show="26" value="1A" unmaskedvalue="1a28"/>
      </field>
      <field name="cip.cm.transport_type_trigger" showname="Transport Type/Trigger: 0x01, Direction: Client, Trigger: Cyclic, Class: 1" size="1" pos="134" show="0x00000001" value="01">
        <field name="cip.cm.fwo.dir" showname="0... .... = Direction: Client (0)" size="1" pos="134" show="0" value="0" unmaskedvalue="01"/>
        <field name="cip.cm.fwo.trigger" showname=".000 .... = Trigger: Cyclic (0)" size="1" pos="134" show="0" value="0" unmaskedvalue="01"/>
        <field name="cip.cm.fwo.transport" showname=".... 0001 = Class: 1 (1)" size="1" pos="134" show="1" value="1" unmaskedvalue="01"/>
      </field>
      <field name="cip.cm.connpath_size" showname="Connection Path Size: 9 words" size="1" pos="135" show="9" value="09"/>
      <field name="" show="Connection Path: [Key], Assembly, Instance: 0x06, Connection Point: 0x02, Connection Point: 0x01" size="18" pos="136" value="34040000000000000000200424062c022c01">
        <field name="cip.epath" showname="EPath: 34040000000000000000200424062c022c01" hide="yes" size="18" pos="136" show="34:04:00:00:00:00:00:00:00:00:20:04:24:06:2c:02:2c:01" value="34040000000000000000200424062c022c01"/>
        <field name="cip.path_segment" showname="Path Segment: 0x34 (Electronic Key Segment) (VendorID: 0x0000, DevTyp: 0x0000, 0.0)" size="10" pos="136" show="0x00000034" value="34040000000000000000">
          <field name="cip.path_segment.type" showname="001. .... = Path Segment Type: Logical Segment (1)" size="1" pos="136" show="1" value="1" unmaskedvalue="34"/>
          <field name="cip.logical_segment.type" showname="...1 01.. = Logical Segment Type: Special (5)" size="1" pos="136" show="5" value="5" unmaskedvalue="34"/>
          <field name="cip.ekey.format" showname="Key Format: 0x04" size="1" pos="137" show="0x00000004" value="04"/>
          <field name="cip.ekey.vendor" showname="Vendor ID: Reserved (0x0000)" size="2" pos="138" show="0" value="0000"/>
          <field name="cip.ekey.devtype" showname="Device Type: Generic Device (deprecated) (0x0000)" size="2" pos="140" show="0" value="0000"/>
          <field name="cip.ekey.product_code" showname="Product Code: 0x0000" size="2" pos="142" show="0x00000000" value="0000"/>
          <field name="cip.ekey.compatibility" showname="Compatibility: Bit Cleared, Major Revision: 0" size="1" pos="144" show="0x00000000" value="00">
            <field name="cip.ekey.comp_bit" showname="0... .... = Compatibility: Bit Cleared (0x0)" size="1" pos="144" show="0x00000000" value="0" unmaskedvalue="00"/>
            <field name="cip.ekey.major_rev" showname=".000 0000 = Major Revision: 0" size="1" pos="144" show="0" value="0" unmaskedvalue="00"/>
          </field>
          <field name="cip.ekey.minor_rev" showname="Minor Revision: 0" size="1" pos="145" show="0" value="00"/>
        </field>
        <field name="cip.path_segment" showname="Path Segment: 0x20 (8-Bit Class Segment)" size="2" pos="146" show="0x00000020" value="2004">
          <field name="cip.path_segment.type" showname="001. .... = Path Segment Type: Logical Segment (1)" size="1" pos="146" show="1" value="1" unmaskedvalue="20"/>
          <field name="cip.logical_segment.type" showname="...0 00.. = Logical Segment Type: Class ID (0)" size="1" pos="146" show="0" value="0" unmaskedvalue="20"/>
          <field name="cip.logical_segment.format" showname=".... ..00 = Logical Segment Format: 8-bit Logical Segment (0)" size="1" pos="146" show="0" value="0" unmaskedvalue="20"/>
          <field name="cip.class" showname="Class: Assembly (0x04)" size="1" pos="147" show="4" value="04"/>
        </field>
        <field name="cip.path_segment" showname="Path Segment: 0x24 (8-Bit Instance Segment)" size="2" pos="148" show="0x00000024" value="2406">
          <field name="cip.path_segment.type" showname="001. .... = Path Segment Type: Logical Segment (1)" size="1" pos="148" show="1" value="1" unmaskedvalue="24"/>
          <field name="cip.logical_segment.type" showname="...0 01.. = Logical Segment Type: Instance ID (1)" size="1" pos="148" show="1" value="1" unmaskedvalue="24"/>
          <field name="cip.logical_segment.format" showname=".... ..00 = Logical Segment Format: 8-bit Logical Segment (0)" size="1" pos="148" show="0" value="0" unmaskedvalue="24"/>
          <field name="cip.instance" showname="Instance: 0x06" size="1" pos="149" show="0x00000006" value="06"/>
        </field>
        <field name="cip.path_segment" showname="Path Segment: 0x2c (8-Bit Connection Point Segment)" size="2" pos="150" show="0x0000002c" value="2c02">
          <field name="cip.path_segment.type" showname="001. .... = Path Segment Type: Logical Segment (1)" size="1" pos="150" show="1" value="1" unmaskedvalue="2c"/>
          <field name="cip.logical_segment.type" showname="...0 11.. = Logical Segment Type: Connection Point (3)" size="1" pos="150" show="3" value="3" unmaskedvalue="2c"/>
          <field name="cip.logical_segment.format" showname=".... ..00 = Logical Segment Format: 8-bit Logical Segment (0)" size="1" pos="150" show="0" value="0" unmaskedvalue="2c"/>
          <field name="cip.connpoint" showname="Connection Point: 0x02" size="1" pos="151" show="0x00000002" value="02"/>
        </field>
        <field name="cip.path_segment" showname="Path Segment: 0x2c (8-Bit Connection Point Segment)" size="2" pos="152" show="0x0000002c" value="2c01">
          <field name="cip.path_segment.type" showname="001. .... = Path Segment Type: Logical Segment (1)" size="1" pos="152" show="1" value="1" unmaskedvalue="2c"/>
          <field name="cip.logical_segment.type" showname="...0 11.. = Logical Segment Type: Connection Point (3)" size="1" pos="152" show="3" value="3" unmaskedvalue="2c"/>
          <field name="cip.logical_segment.format" showname=".... ..00 = Logical Segment Format: 8-bit Logical Segment (0)" size="1" pos="152" show="0" value="0" unmaskedvalue="2c"/>
          <field name="cip.connpoint" showname="Connection Point: 0x01" size="1" pos="153" show="0x00000001" value="01"/>
        </field>
      </field>
    </field>
  </proto>
</packet>


<packet>
  <proto name="geninfo" pos="0" showname="General information" size="158">
    <field name="num" pos="0" show="2" showname="Number" value="2" size="158"/>
    <field name="len" pos="0" show="158" showname="Frame Length" value="9e" size="158"/>
    <field name="caplen" pos="0" show="158" showname="Captured Length" value="9e" size="158"/>
    <field name="timestamp" pos="0" show="Dec  3, 2003 23:34:33.327464000 CST" showname="Captured Time" value="1070465673.327464000" size="158"/>
  </proto>
  <proto name="frame" showname="Frame 2: 158 bytes on wire (1264 bits), 158 bytes captured (1264 bits)" size="158" pos="0">
    <field name="frame.encap_type" showname="Encapsulation type: Ethernet (1)" size="0" pos="0" show="1"/>
    <field name="frame.time" showname="Arrival Time: Dec  3, 2003 23:34:33.327464000 CST" size="0" pos="0" show="Dec  3, 2003 23:34:33.327464000 CST"/>
    <field name="frame.offset_shift" showname="Time shift for this packet: 0.000000000 seconds" size="0" pos="0" show="0.000000000"/>
    <field name="frame.time_epoch" showname="Epoch Time: 1070465673.327464000 seconds" size="0" pos="0" show="1070465673.327464000"/>
    <field name="frame.time_delta" showname="Time delta from previous captured frame: 2.601991000 seconds" size="0" pos="0" show="2.601991000"/>
    <field name="frame.time_delta_displayed" showname="Time delta from previous displayed frame: 2.601991000 seconds" size="0" pos="0" show="2.601991000"/>
    <field name="frame.time_relative" showname="Time since reference or first frame: 2.601991000 seconds" size="0" pos="0" show="2.601991000"/>
    <field name="frame.number" showname="Frame Number: 2" size="0" pos="0" show="2"/>
    <field name="frame.len" showname="Frame Length: 158 bytes (1264 bits)" size="0" pos="0" show="158"/>
    <field name="frame.cap_len" showname="Capture Length: 158 bytes (1264 bits)" size="0" pos="0" show="158"/>
    <field name="frame.marked" showname="Frame is marked: False" size="0" pos="0" show="0"/>
    <field name="frame.ignored" showname="Frame is ignored: False" size="0" pos="0" show="0"/>
    <field name="frame.protocols" showname="Protocols in frame: eth:ethertype:ip:tcp:enip:cip:cipcm" size="0" pos="0" show="eth:ethertype:ip:tcp:enip:cip:cipcm"/>
  </proto>
  <proto name="eth" showname="Ethernet II, Src: Rockwell_05:68:b8 (00:00:bc:05:68:b8), Dst: Rockwell_08:67:49 (00:00:bc:08:67:49)" size="14" pos="0">
    <field name="eth.dst" showname="Destination: Rockwell_08:67:49 (00:00:bc:08:67:49)" size="6" pos="0" show="00:00:bc:08:67:49" value="0000bc086749">
      <field name="eth.dst_resolved" showname="Destination (resolved): Rockwell_08:67:49" hide="yes" size="6" pos="0" show="Rockwell_08:67:49" value="0000bc086749"/>
      <field name="eth.dst.oui" showname="Destination OUI: 00:00:bc (Rockwell Automation)" hide="yes" size="3" pos="0" show="188" value="0000bc"/>
      <field name="eth.dst.oui_resolved" showname="Destination OUI (resolved): Rockwell Automation" hide="yes" size="6" pos="0" show="Rockwell Automation" value="0000bc086749"/>
      <field name="eth.addr" showname="Address: Rockwell_08:67:49 (00:00:bc:08:67:49)" size="6" pos="0" show="00:00:bc:08:67:49" value="0000bc086749"/>
      <field name="eth.addr_resolved" showname="Address (resolved): Rockwell_08:67:49" hide="yes" size="6" pos="0" show="Rockwell_08:67:49" value="0000bc086749"/>
      <field name="eth.addr.oui" showname="Address OUI: 00:00:bc (Rockwell Automation)" hide="yes" size="3" pos="0" show="188" value="0000bc"/>
      <field name="eth.addr.oui_resolved" showname="Address OUI (resolved): Rockwell Automation" hide="yes" size="6" pos="0" show="Rockwell Automation" value="0000bc086749"/>
      <field name="eth.dst.lg" showname=".... ..0. .... .... .... .... = LG bit: Globally unique address (factory default)" size="3" pos="0" show="0" value="0" unmaskedvalue="0000bc"/>
      <field name="eth.lg" showname=".... ..0. .... .... .... .... = LG bit: Globally unique address (factory default)" hide="yes" size="3" pos="0" show="0" value="0" unmaskedvalue="0000bc"/>
      <field name="eth.dst.ig" showname=".... ...0 .... .... .... .... = IG bit: Individual address (unicast)" size="3" pos="0" show="0" value="0" unmaskedvalue="0000bc"/>
      <field name="eth.ig" showname=".... ...0 .... .... .... .... = IG bit: Individual address (unicast)" hide="yes" size="3" pos="0" show="0" value="0" unmaskedvalue="0000bc"/>
    </field>
    <field name="eth.src" showname="Source: Rockwell_05:68:b8 (00:00:bc:05:68:b8)" size="6" pos="6" show="00:00:bc:05:68:b8" value="0000bc0568b8">
      <field name="eth.src_resolved" showname="Source (resolved): Rockwell_05:68:b8" hide="yes" size="6" pos="6" show="Rockwell_05:68:b8" value="0000bc0568b8"/>
      <field name="eth.src.oui" showname="Source OUI: 00:00:bc (Rockwell Automation)" hide="yes" size="3" pos="6" show="188" value="0000bc"/>
      <field name="eth.src.oui_resolved" showname="Source OUI (resolved): Rockwell Automation" hide="yes" size="6" pos="6" show="Rockwell Automation" value="0000bc0568b8"/>
      <field name="eth.addr" showname="Address: Rockwell_05:68:b8 (00:00:bc:05:68:b8)" size="6" pos="6" show="00:00:bc:05:68:b8" value="0000bc0568b8"/>
      <field name="eth.addr_resolved" showname="Address (resolved): Rockwell_05:68:b8" hide="yes" size="6" pos="6" show="Rockwell_05:68:b8" value="0000bc0568b8"/>
      <field name="eth.addr.oui" showname="Address OUI: 00:00:bc (Rockwell Automation)" hide="yes" size="3" pos="6" show="188" value="0000bc"/>
      <field name="eth.addr.oui_resolved" showname="Address OUI (resolved): Rockwell Automation" hide="yes" size="6" pos="6" show="Rockwell Automation" value="0000bc0568b8"/>
      <field name="eth.src.lg" showname=".... ..0. .... .... .... .... = LG bit: Globally unique address (factory default)" size="3" pos="6" show="0" value="0" unmaskedvalue="0000bc"/>
      <field name="eth.lg" showname=".... ..0. .... .... .... .... = LG bit: Globally unique address (factory default)" hide="yes" size="3" pos="6" show="0" value="0" unmaskedvalue="0000bc"/>
      <field name="eth.src.ig" showname=".... ...0 .... .... .... .... = IG bit: Individual address (unicast)" size="3" pos="6" show="0" value="0" unmaskedvalue="0000bc"/>
      <field name="eth.ig" showname=".... ...0 .... .... .... .... = IG bit: Individual address (unicast)" hide="yes" size="3" pos="6" show="0" value="0" unmaskedvalue="0000bc"/>
    </field>
    <field name="eth.type" showname="Type: IPv4 (0x0800)" size="2" pos="12" show="0x00000800" value="0800"/>
    <field name="eth.fcs" showname="Frame check sequence: 0x23e02715 [unverified]" size="4" pos="154" show="0x23e02715" value="23e02715"/>
    <field name="eth.fcs.status" showname="FCS Status: Unverified" size="0" pos="154" show="2"/>
  </proto>
  <proto name="ip" showname="Internet Protocol Version 4, Src: 192.168.100.28, Dst: 192.168.100.35" size="20" pos="14">
    <field name="ip.version" showname="0100 .... = Version: 4" size="1" pos="14" show="4" value="4" unmaskedvalue="45"/>
    <field name="ip.hdr_len" showname=".... 0101 = Header Length: 20 bytes (5)" size="1" pos="14" show="20" value="45"/>
    <field name="ip.dsfield" showname="Differentiated Services Field: 0x00 (DSCP: CS0, ECN: Not-ECT)" size="1" pos="15" show="0x00000000" value="00">
      <field name="ip.dsfield.dscp" showname="0000 00.. = Differentiated Services Codepoint: Default (0)" size="1" pos="15" show="0" value="0" unmaskedvalue="00"/>
      <field name="ip.dsfield.ecn" showname=".... ..00 = Explicit Congestion Notification: Not ECN-Capable Transport (0)" size="1" pos="15" show="0" value="0" unmaskedvalue="00"/>
    </field>
    <field name="ip.len" showname="Total Length: 140" size="2" pos="16" show="140" value="008c"/>
    <field name="ip.id" showname="Identification: 0x4e63 (20067)" size="2" pos="18" show="0x00004e63" value="4e63"/>
    <field name="ip.flags" showname="Flags: 0x0000" size="2" pos="20" show="0x00000000" value="0000">
      <field name="ip.flags.rb" showname="0... .... .... .... = Reserved bit: Not set" size="2" pos="20" show="0" value="0" unmaskedvalue="0000"/>
      <field name="ip.flags.df" showname=".0.. .... .... .... = Don&#x27;t fragment: Not set" size="2" pos="20" show="0" value="0" unmaskedvalue="0000"/>
      <field name="ip.flags.mf" showname="..0. .... .... .... = More fragments: Not set" size="2" pos="20" show="0" value="0" unmaskedvalue="0000"/>
    </field>
    <field name="ip.frag_offset" showname="Fragment offset: 0" size="2" pos="20" show="0" value="0000"/>
    <field name="ip.ttl" showname="Time to live: 64" size="1" pos="22" show="64" value="40"/>
    <field name="ip.proto" showname="Protocol: TCP (6)" size="1" pos="23" show="6" value="06"/>
    <field name="ip.checksum" showname="Header checksum: 0xe278 [validation disabled]" size="2" pos="24" show="0x0000e278" value="e278"/>
    <field name="ip.checksum.status" showname="Header checksum status: Unverified" size="0" pos="24" show="2"/>
    <field name="ip.src" showname="Source: 192.168.100.28" size="4" pos="26" show="192.168.100.28" value="c0a8641c"/>
    <field name="ip.addr" showname="Source or Destination Address: 192.168.100.28" hide="yes" size="4" pos="26" show="192.168.100.28" value="c0a8641c"/>
    <field name="ip.src_host" showname="Source Host: 192.168.100.28" hide="yes" size="4" pos="26" show="192.168.100.28" value="c0a8641c"/>
    <field name="ip.host" showname="Source or Destination Host: 192.168.100.28" hide="yes" size="4" pos="26" show="192.168.100.28" value="c0a8641c"/>
    <field name="ip.dst" showname="Destination: 192.168.100.35" size="4" pos="30" show="192.168.100.35" value="c0a86423"/>
    <field name="ip.addr" showname="Source or Destination Address: 192.168.100.35" hide="yes" size="4" pos="30" show="192.168.100.35" value="c0a86423"/>
    <field name="ip.dst_host" showname="Destination Host: 192.168.100.35" hide="yes" size="4" pos="30" show="192.168.100.35" value="c0a86423"/>
    <field name="ip.host" showname="Source or Destination Host: 192.168.100.35" hide="yes" size="4" pos="30" show="192.168.100.35" value="c0a86423"/>
  </proto>
  <proto name="tcp" showname="Transmission Control Protocol, Src Port: 4496, Dst Port: 44818, Seq: 1, Ack: 1, Len: 100" size="20" pos="34">
    <field name="tcp.srcport" showname="Source Port: 4496" size="2" pos="34" show="4496" value="1190"/>
    <field name="tcp.dstport" showname="Destination Port: 44818" size="2" pos="36" show="44818" value="af12"/>
    <field name="tcp.port" showname="Source or Destination Port: 4496" hide="yes" size="2" pos="34" show="4496" value="1190"/>
    <field name="tcp.port" showname="Source or Destination Port: 44818" hide="yes" size="2" pos="36" show="44818" value="af12"/>
    <field name="tcp.stream" showname="Stream index: 1" size="0" pos="34" show="1"/>
    <field name="tcp.len" showname="TCP Segment Len: 100" size="1" pos="46" show="100" value="50"/>
    <field name="tcp.seq" showname="Sequence number: 1    (relative sequence number)" size="4" pos="38" show="1" value="4db95348"/>
    <field name="tcp.seq_raw" showname="Sequence number (raw): 1303991112" size="4" pos="38" show="1303991112" value="4db95348"/>
    <field name="tcp.nxtseq" showname="Next sequence number: 101    (relative sequence number)" size="0" pos="34" show="101"/>
    <field name="tcp.ack" showname="Acknowledgment number: 1    (relative ack number)" size="4" pos="42" show="1" value="42a39cb8"/>
    <field name="tcp.ack_raw" showname="Acknowledgment number (raw): 1118018744" size="4" pos="42" show="1118018744" value="42a39cb8"/>
    <field name="tcp.hdr_len" showname="0101 .... = Header Length: 20 bytes (5)" size="1" pos="46" show="20" value="50"/>
    <field name="tcp.flags" showname="Flags: 0x018 (PSH, ACK)" size="2" pos="46" show="0x00000018" value="18" unmaskedvalue="5018">
      <field name="tcp.flags.res" showname="000. .... .... = Reserved: Not set" size="1" pos="46" show="0" value="0" unmaskedvalue="50"/>
      <field name="tcp.flags.ns" showname="...0 .... .... = Nonce: Not set" size="1" pos="46" show="0" value="0" unmaskedvalue="50"/>
      <field name="tcp.flags.cwr" showname=".... 0... .... = Congestion Window Reduced (CWR): Not set" size="1" pos="47" show="0" value="0" unmaskedvalue="18"/>
      <field name="tcp.flags.ecn" showname=".... .0.. .... = ECN-Echo: Not set" size="1" pos="47" show="0" value="0" unmaskedvalue="18"/>
      <field name="tcp.flags.urg" showname=".... ..0. .... = Urgent: Not set" size="1" pos="47" show="0" value="0" unmaskedvalue="18"/>
      <field name="tcp.flags.ack" showname=".... ...1 .... = Acknowledgment: Set" size="1" pos="47" show="1" value="1" unmaskedvalue="18"/>
      <field name="tcp.flags.push" showname=".... .... 1... = Push: Set" size="1" pos="47" show="1" value="1" unmaskedvalue="18"/>
      <field name="tcp.flags.reset" showname=".... .... .0.. = Reset: Not set" size="1" pos="47" show="0" value="0" unmaskedvalue="18"/>
      <field name="tcp.flags.syn" showname=".... .... ..0. = Syn: Not set" size="1" pos="47" show="0" value="0" unmaskedvalue="18"/>
      <field name="tcp.flags.fin" showname=".... .... ...0 = Fin: Not set" size="1" pos="47" show="0" value="0" unmaskedvalue="18"/>
      <field name="tcp.flags.str" showname="TCP Flags: \xc2\xb7\xc2\xb7\xc2\xb7\xc2\xb7\xc2\xb7\xc2\xb7\xc2\xb7AP\xc2\xb7\xc2\xb7\xc2\xb7" size="2" pos="46" show="\xc2\xb7\xc2\xb7\xc2\xb7\xc2\xb7\xc2\xb7\xc2\xb7\xc2\xb7AP\xc2\xb7\xc2\xb7\xc2\xb7" value="5018"/>
    </field>
    <field name="tcp.window_size_value" showname="Window size value: 16384" size="2" pos="48" show="16384" value="4000"/>
    <field name="tcp.window_size" showname="Calculated window size: 16384" size="2" pos="48" show="16384" value="4000"/>
    <field name="tcp.window_size_scalefactor" showname="Window size scaling factor: -1 (unknown)" size="2" pos="48" show="-1" value="4000"/>
    <field name="tcp.checksum" showname="Checksum: 0xca66 [unverified]" size="2" pos="50" show="0x0000ca66" value="ca66"/>
    <field name="tcp.checksum.status" showname="Checksum Status: Unverified" size="0" pos="50" show="2"/>
    <field name="tcp.urgent_pointer" showname="Urgent pointer: 0" size="2" pos="52" show="0" value="0000"/>
    <field name="tcp.analysis" showname="SEQ/ACK analysis" size="0" pos="34" show="" value="">
      <field name="tcp.analysis.bytes_in_flight" showname="Bytes in flight: 100" size="0" pos="34" show="100"/>
      <field name="tcp.analysis.push_bytes_sent" showname="Bytes sent since last PSH flag: 100" size="0" pos="34" show="100"/>
    </field>
    <field name="" show="Timestamps" size="0" pos="34">
      <field name="tcp.time_relative" showname="Time since first frame in this TCP stream: 0.000000000 seconds" size="0" pos="34" show="0.000000000"/>
      <field name="tcp.time_delta" showname="Time since previous frame in this TCP stream: 0.000000000 seconds" size="0" pos="34" show="0.000000000"/>
    </field>
    <field name="tcp.payload" showname="TCP payload (100 bytes)" size="100" pos="54" show="6f:00:4c:00:01:00:00:00:00:00:00:00:c0:a8:64:1c:00:00:40:37:00:00:00:00:00:00:00:00:00:00:02:00:00:00:00:00:b2:00:3c:00:54:02:20:06:24:01:05:9b:00:00:00:00:00:00:00:00:0d:00:01:00:22:f5:13:00:02:00:00:00:10:27:00:00:1a:48:10:27:00:00:1a:28:01:09:34:04:00:00:00:00:00:00:00:00:20:04:24:06:2c:02:2c:01" value="6f004c000100000000000000c0a8641c0000403700000000000000000000020000000000b2003c00540220062401059b00000000000000000d00010022f5130002000000102700001a48102700001a28010934040000000000000000200424062c022c01"/>
    <field name="tcp.pdu.size" showname="PDU Size: 100" size="100" pos="54" show="100" value="6f004c000100000000000000c0a8641c0000403700000000000000000000020000000000b2003c00540220062401059b00000000000000000d00010022f5130002000000102700001a48102700001a28010934040000000000000000200424062c022c01"/>
  </proto>
  <proto name="enip" showname="EtherNet/IP (Industrial Protocol), Session: 0x00000001, Send RR Data" size="100" pos="54">
    <field name="" show="Encapsulation Header" size="24" pos="54" value="6f004c000100000000000000c0a8641c0000403700000000">
      <field name="enip.command" showname="Command: Send RR Data (0x006f)" size="2" pos="54" show="0x0000006f" value="6f00"/>
      <field name="enip.length" showname="Length: 76" size="2" pos="56" show="76" value="4c00"/>
      <field name="enip.session" showname="Session Handle: 0x00000001" size="4" pos="58" show="0x00000001" value="01000000"/>
      <field name="enip.status" showname="Status: Success (0x00000000)" size="4" pos="62" show="0x00000000" value="00000000"/>
      <field name="enip.context" showname="Sender Context: c0a8641c00004037" size="8" pos="66" show="c0:a8:64:1c:00:00:40:37" value="c0a8641c00004037"/>
      <field name="enip.options" showname="Options: 0x00000000" size="4" pos="74" show="0x00000000" value="00000000"/>
    </field>
    <field name="" show="Command Specific Data" size="76" pos="78" value="000000000000020000000000b2003c00540220062401059b00000000000000000d00010022f5130002000000102700001a48102700001a28010934040000000000000000200424062c022c01">
      <field name="enip.srrd.iface" showname="Interface Handle: CIP (0x00000000)" size="4" pos="78" show="0x00000000" value="00000000"/>
      <field name="enip.timeout" showname="Timeout: 0" size="2" pos="82" show="0" value="0000"/>
      <field name="enip.cpf.itemcount" showname="Item Count: 2" size="2" pos="84" show="2" value="0200">
        <field name="enip.cpf.typeid" showname="Type ID: Null Address Item (0x0000)" size="2" pos="86" show="0x00000000" value="0000">
          <field name="enip.cpf.length" showname="Length: 0" size="2" pos="88" show="0" value="0000"/>
        </field>
        <field name="enip.cpf.typeid" showname="Type ID: Unconnected Data Item (0x00b2)" size="2" pos="90" show="0x000000b2" value="b200">
          <field name="enip.cpf.length" showname="Length: 60" size="2" pos="92" show="60" value="3c00"/>
        </field>
      </field>
    </field>
  </proto>
  <proto name="cip" showname="Common Industrial Protocol" size="60" pos="94">
    <field name="cip.service" showname="Service: Unknown Service (0x54) (Request)" size="1" pos="94" show="0x00000054" value="54">
      <field name="cip.rr" showname="0... .... = Request/Response: Request (0x0)" size="1" pos="94" show="0x00000000" value="0" unmaskedvalue="54"/>
      <field name="cip.sc" showname=".101 0100 = Service: Unknown (0x54)" size="1" pos="94" show="0x00000054" value="54" unmaskedvalue="54"/>
    </field>
    <field name="cip.request_path_size" showname="Request Path Size: 2 words" size="1" pos="95" show="2" value="02"/>
    <field name="" show="Request Path: Connection Manager, Instance: 0x01" size="4" pos="96" value="20062401">
      <field name="cip.epath" showname="EPath: 20062401" hide="yes" size="4" pos="96" show="20:06:24:01" value="20062401"/>
      <field name="cip.path_segment" showname="Path Segment: 0x20 (8-Bit Class Segment)" size="2" pos="96" show="0x00000020" value="2006">
        <field name="cip.path_segment.type" showname="001. .... = Path Segment Type: Logical Segment (1)" size="1" pos="96" show="1" value="1" unmaskedvalue="20"/>
        <field name="cip.logical_segment.type" showname="...0 00.. = Logical Segment Type: Class ID (0)" size="1" pos="96" show="0" value="0" unmaskedvalue="20"/>
        <field name="cip.logical_segment.format" showname=".... ..00 = Logical Segment Format: 8-bit Logical Segment (0)" size="1" pos="96" show="0" value="0" unmaskedvalue="20"/>
        <field name="cip.class" showname="Class: Connection Manager (0x06)" size="1" pos="97" show="6" value="06"/>
      </field>
      <field name="cip.path_segment" showname="Path Segment: 0x24 (8-Bit Instance Segment)" size="2" pos="98" show="0x00000024" value="2401">
        <field name="cip.path_segment.type" showname="001. .... = Path Segment Type: Logical Segment (1)" size="1" pos="98" show="1" value="1" unmaskedvalue="24"/>
        <field name="cip.logical_segment.type" showname="...0 01.. = Logical Segment Type: Instance ID (1)" size="1" pos="98" show="1" value="1" unmaskedvalue="24"/>
        <field name="cip.logical_segment.format" showname=".... ..00 = Logical Segment Format: 8-bit Logical Segment (0)" size="1" pos="98" show="0" value="0" unmaskedvalue="24"/>
        <field name="cip.instance" showname="Instance: 0x01" size="1" pos="99" show="0x00000001" value="01"/>
      </field>
    </field>
  </proto>
  <proto name="cipcm" showname="CIP Connection Manager" size="60" pos="94">
    <field name="" show="Service: Forward Open (Request)" size="1" pos="94" value="54">
      <field name="cip.rr" showname="0... .... = Request/Response: Request (0x0)" size="1" pos="94" show="0x00000000" value="0" unmaskedvalue="54"/>
      <field name="cip.cm.sc" showname=".101 0100 = Service: Forward Open (0x54)" size="1" pos="94" show="0x00000054" value="54" unmaskedvalue="54"/>
    </field>
    <field name="" show="Command Specific Data" size="54" pos="100" value="059b00000000000000000d00010022f5130002000000102700001a48102700001a28010934040000000000000000200424062c022c01">
      <field name="cip.cm.priority" showname="...0 .... = Priority: 0" size="1" pos="100" show="0" value="0" unmaskedvalue="05"/>
      <field name="cip.cm.tick_time" showname=".... 0101 = Tick time: 5" size="1" pos="100" show="5" value="5" unmaskedvalue="05"/>
      <field name="cip.cm.timeout_tick" showname="Time-out ticks: 155" size="1" pos="101" show="155" value="9b"/>
      <field name="cip.cm.timeout" showname="Actual Time Out: 4960ms" size="2" pos="100" show="4960" value="059b"/>
      <field name="cip.cm.ot_connid" showname="O-&gt;T Network Connection ID: 0x00000000" size="4" pos="102" show="0x00000000" value="00000000"/>
      <field name="cip.cm.to_connid" showname="T-&gt;O Network Connection ID: 0x00000000" size="4" pos="106" show="0x00000000" value="00000000"/>
      <field name="cip.cm.conn_serial_num" showname="Connection Serial Number: 0x000d" size="2" pos="110" show="0x0000000d" value="0d00"/>
      <field name="cip.cm.vendor" showname="Originator Vendor ID: Rockwell Automation/Allen-Bradley (0x0001)" size="2" pos="112" show="1" value="0100"/>
      <field name="cip.cm.orig_serial_num" showname="Originator Serial Number: 0x0013f522" size="4" pos="114" show="0x0013f522" value="22f51300"/>
      <field name="cip.cm.timeout_multiplier" showname="Connection Timeout Multiplier: *16 (2)" size="1" pos="118" show="2" value="02"/>
      <field name="cip.reserved" showname="Reserved: 0x000000" size="3" pos="119" show="0x00000000" value="000000"/>
      <field name="cip.cm.otrpi" showname="O-&gt;T RPI: 10.000ms" size="4" pos="122" show="10000" value="10270000"/>
      <field name="cip.cm.ot_net_params" showname="O-&gt;T Network Connection Parameters: 0x481a" size="2" pos="126" show="0x0000481a" value="1a48">
        <field name="cip.cm.fwo.owner" showname="0... .... .... .... = Owner: Exclusive (0)" size="2" pos="126" show="0" value="0" unmaskedvalue="1a48"/>
        <field name="cip.cm.fwo.type" showname=".10. .... .... .... = Connection Type: Point to Point (2)" size="2" pos="126" show="2" value="2" unmaskedvalue="1a48"/>
        <field name="cip.cm.fwo.prio" showname=".... 10.. .... .... = Priority: Scheduled (2)" size="2" pos="126" show="2" value="2" unmaskedvalue="1a48"/>
        <field name="cip.cm.fwo.f_v" showname=".... ..0. .... .... = Connection Size Type: Fixed (0)" size="2" pos="126" show="0" value="0" unmaskedvalue="1a48"/>
        <field name="cip.cm.fwo.consize" showname=".... ...0 0001 1010 = Connection Size: 26 bytes" size="2" pos="126" show="26" value="1A" unmaskedvalue="1a48"/>
      </field>
      <field name="cip.cm.torpi" showname="T-&gt;O RPI: 10.000ms" size="4" pos="128" show="10000" value="10270000"/>
      <field name="cip.cm.to_net_params" showname="T-&gt;O Network Connection Parameters: 0x281a" size="2" pos="132" show="0x0000281a" value="1a28">
        <field name="cip.cm.fwo.owner" showname="0... .... .... .... = Owner: Exclusive (0)" size="2" pos="132" show="0" value="0" unmaskedvalue="1a28"/>
        <field name="cip.cm.fwo.type" showname=".01. .... .... .... = Connection Type: Multicast (1)" size="2" pos="132" show="1" value="1" unmaskedvalue="1a28"/>
        <field name="cip.cm.fwo.prio" showname=".... 10.. .... .... = Priority: Scheduled (2)" size="2" pos="132" show="2" value="2" unmaskedvalue="1a28"/>
        <field name="cip.cm.fwo.f_v" showname=".... ..0. .... .... = Connection Size Type: Fixed (0)" size="2" pos="132" show="0" value="0" unmaskedvalue="1a28"/>
        <field name="cip.cm.fwo.consize" showname=".... ...0 0001 1010 = Connection Size: 26 bytes" size="2" pos="132" show="26" value="1A" unmaskedvalue="1a28"/>
      </field>
      <field name="cip.cm.transport_type_trigger" showname="Transport Type/Trigger: 0x01, Direction: Client, Trigger: Cyclic, Class: 1" size="1" pos="134" show="0x00000001" value="01">
        <field name="cip.cm.fwo.dir" showname="0... .... = Direction: Client (0)" size="1" pos="134" show="0" value="0" unmaskedvalue="01"/>
        <field name="cip.cm.fwo.trigger" showname=".000 .... = Trigger: Cyclic (0)" size="1" pos="134" show="0" value="0" unmaskedvalue="01"/>
        <field name="cip.cm.fwo.transport" showname=".... 0001 = Class: 1 (1)" size="1" pos="134" show="1" value="1" unmaskedvalue="01"/>
      </field>
      <field name="cip.cm.connpath_size" showname="Connection Path Size: 9 words" size="1" pos="135" show="9" value="09"/>
      <field name="" show="Connection Path: [Key], Assembly, Instance: 0x06, Connection Point: 0x02, Connection Point: 0x01" size="18" pos="136" value="34040000000000000000200424062c022c01">
        <field name="cip.epath" showname="EPath: 34040000000000000000200424062c022c01" hide="yes" size="18" pos="136" show="34:04:00:00:00:00:00:00:00:00:20:04:24:06:2c:02:2c:01" value="34040000000000000000200424062c022c01"/>
        <field name="cip.path_segment" showname="Path Segment: 0x34 (Electronic Key Segment) (VendorID: 0x0000, DevTyp: 0x0000, 0.0)" size="10" pos="136" show="0x00000034" value="34040000000000000000">
          <field name="cip.path_segment.type" showname="001. .... = Path Segment Type: Logical Segment (1)" size="1" pos="136" show="1" value="1" unmaskedvalue="34"/>
          <field name="cip.logical_segment.type" showname="...1 01.. = Logical Segment Type: Special (5)" size="1" pos="136" show="5" value="5" unmaskedvalue="34"/>
          <field name="cip.ekey.format" showname="Key Format: 0x04" size="1" pos="137" show="0x00000004" value="04"/>
          <field name="cip.ekey.vendor" showname="Vendor ID: Reserved (0x0000)" size="2" pos="138" show="0" value="0000"/>
          <field name="cip.ekey.devtype" showname="Device Type: Generic Device (deprecated) (0x0000)" size="2" pos="140" show="0" value="0000"/>
          <field name="cip.ekey.product_code" showname="Product Code: 0x0000" size="2" pos="142" show="0x00000000" value="0000"/>
          <field name="cip.ekey.compatibility" showname="Compatibility: Bit Cleared, Major Revision: 0" size="1" pos="144" show="0x00000000" value="00">
            <field name="cip.ekey.comp_bit" showname="0... .... = Compatibility: Bit Cleared (0x0)" size="1" pos="144" show="0x00000000" value="0" unmaskedvalue="00"/>
            <field name="cip.ekey.major_rev" showname=".000 0000 = Major Revision: 0" size="1" pos="144" show="0" value="0" unmaskedvalue="00"/>
          </field>
          <field name="cip.ekey.minor_rev" showname="Minor Revision: 0" size="1" pos="145" show="0" value="00"/>
        </field>
        <field name="cip.path_segment" showname="Path Segment: 0x20 (8-Bit Class Segment)" size="2" pos="146" show="0x00000020" value="2004">
          <field name="cip.path_segment.type" showname="001. .... = Path Segment Type: Logical Segment (1)" size="1" pos="146" show="1" value="1" unmaskedvalue="20"/>
          <field name="cip.logical_segment.type" showname="...0 00.. = Logical Segment Type: Class ID (0)" size="1" pos="146" show="0" value="0" unmaskedvalue="20"/>
          <field name="cip.logical_segment.format" showname=".... ..00 = Logical Segment Format: 8-bit Logical Segment (0)" size="1" pos="146" show="0" value="0" unmaskedvalue="20"/>
          <field name="cip.class" showname="Class: Assembly (0x04)" size="1" pos="147" show="4" value="04"/>
        </field>
        <field name="cip.path_segment" showname="Path Segment: 0x24 (8-Bit Instance Segment)" size="2" pos="148" show="0x00000024" value="2406">
          <field name="cip.path_segment.type" showname="001. .... = Path Segment Type: Logical Segment (1)" size="1" pos="148" show="1" value="1" unmaskedvalue="24"/>
          <field name="cip.logical_segment.type" showname="...0 01.. = Logical Segment Type: Instance ID (1)" size="1" pos="148" show="1" value="1" unmaskedvalue="24"/>
          <field name="cip.logical_segment.format" showname=".... ..00 = Logical Segment Format: 8-bit Logical Segment (0)" size="1" pos="148" show="0" value="0" unmaskedvalue="24"/>
          <field name="cip.instance" showname="Instance: 0x06" size="1" pos="149" show="0x00000006" value="06"/>
        </field>
        <field name="cip.path_segment" showname="Path Segment: 0x2c (8-Bit Connection Point Segment)" size="2" pos="150" show="0x0000002c" value="2c02">
          <field name="cip.path_segment.type" showname="001. .... = Path Segment Type: Logical Segment (1)" size="1" pos="150" show="1" value="1" unmaskedvalue="2c"/>
          <field name="cip.logical_segment.type" showname="...0 11.. = Logical Segment Type: Connection Point (3)" size="1" pos="150" show="3" value="3" unmaskedvalue="2c"/>
          <field name="cip.logical_segment.format" showname=".... ..00 = Logical Segment Format: 8-bit Logical Segment (0)" size="1" pos="150" show="0" value="0" unmaskedvalue="2c"/>
          <field name="cip.connpoint" showname="Connection Point: 0x02" size="1" pos="151" show="0x00000002" value="02"/>
        </field>
        <field name="cip.path_segment" showname="Path Segment: 0x2c (8-Bit Connection Point Segment)" size="2" pos="152" show="0x0000002c" value="2c01">
          <field name="cip.path_segment.type" showname="001. .... = Path Segment Type: Logical Segment (1)" size="1" pos="152" show="1" value="1" unmaskedvalue="2c"/>
          <field name="cip.logical_segment.type" showname="...0 11.. = Logical Segment Type: Connection Point (3)" size="1" pos="152" show="3" value="3" unmaskedvalue="2c"/>
          <field name="cip.logical_segment.format" showname=".... ..00 = Logical Segment Format: 8-bit Logical Segment (0)" size="1" pos="152" show="0" value="0" unmaskedvalue="2c"/>
          <field name="cip.connpoint" showname="Connection Point: 0x01" size="1" pos="153" show="0x00000001" value="01"/>
        </field>
      </field>
    </field>
  </proto>
</packet>


<packet>
  <proto name="geninfo" pos="0" showname="General information" size="82">
    <field name="num" pos="0" show="3" showname="Number" value="3" size="82"/>
    <field name="len" pos="0" show="82" showname="Frame Length" value="52" size="82"/>
    <field name="caplen" pos="0" show="82" showname="Captured Length" value="52" size="82"/>
    <field name="timestamp" pos="0" show="Dec  3, 2003 23:35:03.972704000 CST" showname="Captured Time" value="1070465703.972704000" size="82"/>
  </proto>
  <proto name="frame" showname="Frame 3: 82 bytes on wire (656 bits), 82 bytes captured (656 bits)" size="82" pos="0">
    <field name="frame.encap_type" showname="Encapsulation type: Ethernet (1)" size="0" pos="0" show="1"/>
    <field name="frame.time" showname="Arrival Time: Dec  3, 2003 23:35:03.972704000 CST" size="0" pos="0" show="Dec  3, 2003 23:35:03.972704000 CST"/>
    <field name="frame.offset_shift" showname="Time shift for this packet: 0.000000000 seconds" size="0" pos="0" show="0.000000000"/>
    <field name="frame.time_epoch" showname="Epoch Time: 1070465703.972704000 seconds" size="0" pos="0" show="1070465703.972704000"/>
    <field name="frame.time_delta" showname="Time delta from previous captured frame: 30.645240000 seconds" size="0" pos="0" show="30.645240000"/>
    <field name="frame.time_delta_displayed" showname="Time delta from previous displayed frame: 30.645240000 seconds" size="0" pos="0" show="30.645240000"/>
    <field name="frame.time_relative" showname="Time since reference or first frame: 33.247231000 seconds" size="0" pos="0" show="33.247231000"/>
    <field name="frame.number" showname="Frame Number: 3" size="0" pos="0" show="3"/>
    <field name="frame.len" showname="Frame Length: 82 bytes (656 bits)" size="0" pos="0" show="82"/>
    <field name="frame.cap_len" showname="Capture Length: 82 bytes (656 bits)" size="0" pos="0" show="82"/>
    <field name="frame.marked" showname="Frame is marked: False" size="0" pos="0" show="0"/>
    <field name="frame.ignored" showname="Frame is ignored: False" size="0" pos="0" show="0"/>
    <field name="frame.protocols" showname="Protocols in frame: eth:ethertype:ip:tcp:enip" size="0" pos="0" show="eth:ethertype:ip:tcp:enip"/>
  </proto>
  <proto name="eth" showname="Ethernet II, Src: Rockwell_05:68:b8 (00:00:bc:05:68:b8), Dst: Rockwell_08:67:3e (00:00:bc:08:67:3e)" size="14" pos="0">
    <field name="eth.dst" showname="Destination: Rockwell_08:67:3e (00:00:bc:08:67:3e)" size="6" pos="0" show="00:00:bc:08:67:3e" value="0000bc08673e">
      <field name="eth.dst_resolved" showname="Destination (resolved): Rockwell_08:67:3e" hide="yes" size="6" pos="0" show="Rockwell_08:67:3e" value="0000bc08673e"/>
      <field name="eth.dst.oui" showname="Destination OUI: 00:00:bc (Rockwell Automation)" hide="yes" size="3" pos="0" show="188" value="0000bc"/>
      <field name="eth.dst.oui_resolved" showname="Destination OUI (resolved): Rockwell Automation" hide="yes" size="6" pos="0" show="Rockwell Automation" value="0000bc08673e"/>
      <field name="eth.addr" showname="Address: Rockwell_08:67:3e (00:00:bc:08:67:3e)" size="6" pos="0" show="00:00:bc:08:67:3e" value="0000bc08673e"/>
      <field name="eth.addr_resolved" showname="Address (resolved): Rockwell_08:67:3e" hide="yes" size="6" pos="0" show="Rockwell_08:67:3e" value="0000bc08673e"/>
      <field name="eth.addr.oui" showname="Address OUI: 00:00:bc (Rockwell Automation)" hide="yes" size="3" pos="0" show="188" value="0000bc"/>
      <field name="eth.addr.oui_resolved" showname="Address OUI (resolved): Rockwell Automation" hide="yes" size="6" pos="0" show="Rockwell Automation" value="0000bc08673e"/>
      <field name="eth.dst.lg" showname=".... ..0. .... .... .... .... = LG bit: Globally unique address (factory default)" size="3" pos="0" show="0" value="0" unmaskedvalue="0000bc"/>
      <field name="eth.lg" showname=".... ..0. .... .... .... .... = LG bit: Globally unique address (factory default)" hide="yes" size="3" pos="0" show="0" value="0" unmaskedvalue="0000bc"/>
      <field name="eth.dst.ig" showname=".... ...0 .... .... .... .... = IG bit: Individual address (unicast)" size="3" pos="0" show="0" value="0" unmaskedvalue="0000bc"/>
      <field name="eth.ig" showname=".... ...0 .... .... .... .... = IG bit: Individual address (unicast)" hide="yes" size="3" pos="0" show="0" value="0" unmaskedvalue="0000bc"/>
    </field>
    <field name="eth.src" showname="Source: Rockwell_05:68:b8 (00:00:bc:05:68:b8)" size="6" pos="6" show="00:00:bc:05:68:b8" value="0000bc0568b8">
      <field name="eth.src_resolved" showname="Source (resolved): Rockwell_05:68:b8" hide="yes" size="6" pos="6" show="Rockwell_05:68:b8" value="0000bc0568b8"/>
      <field name="eth.src.oui" showname="Source OUI: 00:00:bc (Rockwell Automation)" hide="yes" size="3" pos="6" show="188" value="0000bc"/>
      <field name="eth.src.oui_resolved" showname="Source OUI (resolved): Rockwell Automation" hide="yes" size="6" pos="6" show="Rockwell Automation" value="0000bc0568b8"/>
      <field name="eth.addr" showname="Address: Rockwell_05:68:b8 (00:00:bc:05:68:b8)" size="6" pos="6" show="00:00:bc:05:68:b8" value="0000bc0568b8"/>
      <field name="eth.addr_resolved" showname="Address (resolved): Rockwell_05:68:b8" hide="yes" size="6" pos="6" show="Rockwell_05:68:b8" value="0000bc0568b8"/>
      <field name="eth.addr.oui" showname="Address OUI: 00:00:bc (Rockwell Automation)" hide="yes" size="3" pos="6" show="188" value="0000bc"/>
      <field name="eth.addr.oui_resolved" showname="Address OUI (resolved): Rockwell Automation" hide="yes" size="6" pos="6" show="Rockwell Automation" value="0000bc0568b8"/>
      <field name="eth.src.lg" showname=".... ..0. .... .... .... .... = LG bit: Globally unique address (factory default)" size="3" pos="6" show="0" value="0" unmaskedvalue="0000bc"/>
      <field name="eth.lg" showname=".... ..0. .... .... .... .... = LG bit: Globally unique address (factory default)" hide="yes" size="3" pos="6" show="0" value="0" unmaskedvalue="0000bc"/>
      <field name="eth.src.ig" showname=".... ...0 .... .... .... .... = IG bit: Individual address (unicast)" size="3" pos="6" show="0" value="0" unmaskedvalue="0000bc"/>
      <field name="eth.ig" showname=".... ...0 .... .... .... .... = IG bit: Individual address (unicast)" hide="yes" size="3" pos="6" show="0" value="0" unmaskedvalue="0000bc"/>
    </field>
    <field name="eth.type" showname="Type: IPv4 (0x0800)" size="2" pos="12" show="0x00000800" value="0800"/>
    <field name="eth.fcs" showname="Frame check sequence: 0x6d6d9393 [unverified]" size="4" pos="78" show="0x6d6d9393" value="6d6d9393"/>
    <field name="eth.fcs.status" showname="FCS Status: Unverified" size="0" pos="78" show="2"/>
  </proto>
  <proto name="ip" showname="Internet Protocol Version 4, Src: 192.168.100.28, Dst: 192.168.100.36" size="20" pos="14">
    <field name="ip.version" showname="0100 .... = Version: 4" size="1" pos="14" show="4" value="4" unmaskedvalue="45"/>
    <field name="ip.hdr_len" showname=".... 0101 = Header Length: 20 bytes (5)" size="1" pos="14" show="20" value="45"/>
    <field name="ip.dsfield" showname="Differentiated Services Field: 0x00 (DSCP: CS0, ECN: Not-ECT)" size="1" pos="15" show="0x00000000" value="00">
      <field name="ip.dsfield.dscp" showname="0000 00.. = Differentiated Services Codepoint: Default (0)" size="1" pos="15" show="0" value="0" unmaskedvalue="00"/>
      <field name="ip.dsfield.ecn" showname=".... ..00 = Explicit Congestion Notification: Not ECN-Capable Transport (0)" size="1" pos="15" show="0" value="0" unmaskedvalue="00"/>
    </field>
    <field name="ip.len" showname="Total Length: 64" size="2" pos="16" show="64" value="0040"/>
    <field name="ip.id" showname="Identification: 0x60d4 (24788)" size="2" pos="18" show="0x000060d4" value="60d4"/>
    <field name="ip.flags" showname="Flags: 0x0000" size="2" pos="20" show="0x00000000" value="0000">
      <field name="ip.flags.rb" showname="0... .... .... .... = Reserved bit: Not set" size="2" pos="20" show="0" value="0" unmaskedvalue="0000"/>
      <field name="ip.flags.df" showname=".0.. .... .... .... = Don&#x27;t fragment: Not set" size="2" pos="20" show="0" value="0" unmaskedvalue="0000"/>
      <field name="ip.flags.mf" showname="..0. .... .... .... = More fragments: Not set" size="2" pos="20" show="0" value="0" unmaskedvalue="0000"/>
    </field>
    <field name="ip.frag_offset" showname="Fragment offset: 0" size="2" pos="20" show="0" value="0000"/>
    <field name="ip.ttl" showname="Time to live: 64" size="1" pos="22" show="64" value="40"/>
    <field name="ip.proto" showname="Protocol: TCP (6)" size="1" pos="23" show="6" value="06"/>
    <field name="ip.checksum" showname="Header checksum: 0xd052 [validation disabled]" size="2" pos="24" show="0x0000d052" value="d052"/>
    <field name="ip.checksum.status" showname="Header checksum status: Unverified" size="0" pos="24" show="2"/>
    <field name="ip.src" showname="Source: 192.168.100.28" size="4" pos="26" show="192.168.100.28" value="c0a8641c"/>
    <field name="ip.addr" showname="Source or Destination Address: 192.168.100.28" hide="yes" size="4" pos="26" show="192.168.100.28" value="c0a8641c"/>
    <field name="ip.src_host" showname="Source Host: 192.168.100.28" hide="yes" size="4" pos="26" show="192.168.100.28" value="c0a8641c"/>
    <field name="ip.host" showname="Source or Destination Host: 192.168.100.28" hide="yes" size="4" pos="26" show="192.168.100.28" value="c0a8641c"/>
    <field name="ip.dst" showname="Destination: 192.168.100.36" size="4" pos="30" show="192.168.100.36" value="c0a86424"/>
    <field name="ip.addr" showname="Source or Destination Address: 192.168.100.36" hide="yes" size="4" pos="30" show="192.168.100.36" value="c0a86424"/>
    <field name="ip.dst_host" showname="Destination Host: 192.168.100.36" hide="yes" size="4" pos="30" show="192.168.100.36" value="c0a86424"/>
    <field name="ip.host" showname="Source or Destination Host: 192.168.100.36" hide="yes" size="4" pos="30" show="192.168.100.36" value="c0a86424"/>
  </proto>
  <proto name="tcp" showname="Transmission Control Protocol, Src Port: 4497, Dst Port: 44818, Seq: 1, Ack: 1, Len: 24" size="20" pos="34">
    <field name="tcp.srcport" showname="Source Port: 4497" size="2" pos="34" show="4497" value="1191"/>
    <field name="tcp.dstport" showname="Destination Port: 44818" size="2" pos="36" show="44818" value="af12"/>
    <field name="tcp.port" showname="Source or Destination Port: 4497" hide="yes" size="2" pos="34" show="4497" value="1191"/>
    <field name="tcp.port" showname="Source or Destination Port: 44818" hide="yes" size="2" pos="36" show="44818" value="af12"/>
    <field name="tcp.stream" showname="Stream index: 2" size="0" pos="34" show="2"/>
    <field name="tcp.len" showname="TCP Segment Len: 24" size="1" pos="46" show="24" value="50"/>
    <field name="tcp.seq" showname="Sequence number: 1    (relative sequence number)" size="4" pos="38" show="1" value="53e84fbe"/>
    <field name="tcp.seq_raw" showname="Sequence number (raw): 1407733694" size="4" pos="38" show="1407733694" value="53e84fbe"/>
    <field name="tcp.nxtseq" showname="Next sequence number: 25    (relative sequence number)" size="0" pos="34" show="25"/>
    <field name="tcp.ack" showname="Acknowledgment number: 1    (relative ack number)" size="4" pos="42" show="1" value="819987db"/>
    <field name="tcp.ack_raw" showname="Acknowledgment number (raw): 2174322651" size="4" pos="42" show="2174322651" value="819987db"/>
    <field name="tcp.hdr_len" showname="0101 .... = Header Length: 20 bytes (5)" size="1" pos="46" show="20" value="50"/>
    <field name="tcp.flags" showname="Flags: 0x018 (PSH, ACK)" size="2" pos="46" show="0x00000018" value="18" unmaskedvalue="5018">
      <field name="tcp.flags.res" showname="000. .... .... = Reserved: Not set" size="1" pos="46" show="0" value="0" unmaskedvalue="50"/>
      <field name="tcp.flags.ns" showname="...0 .... .... = Nonce: Not set" size="1" pos="46" show="0" value="0" unmaskedvalue="50"/>
      <field name="tcp.flags.cwr" showname=".... 0... .... = Congestion Window Reduced (CWR): Not set" size="1" pos="47" show="0" value="0" unmaskedvalue="18"/>
      <field name="tcp.flags.ecn" showname=".... .0.. .... = ECN-Echo: Not set" size="1" pos="47" show="0" value="0" unmaskedvalue="18"/>
      <field name="tcp.flags.urg" showname=".... ..0. .... = Urgent: Not set" size="1" pos="47" show="0" value="0" unmaskedvalue="18"/>
      <field name="tcp.flags.ack" showname=".... ...1 .... = Acknowledgment: Set" size="1" pos="47" show="1" value="1" unmaskedvalue="18"/>
      <field name="tcp.flags.push" showname=".... .... 1... = Push: Set" size="1" pos="47" show="1" value="1" unmaskedvalue="18"/>
      <field name="tcp.flags.reset" showname=".... .... .0.. = Reset: Not set" size="1" pos="47" show="0" value="0" unmaskedvalue="18"/>
      <field name="tcp.flags.syn" showname=".... .... ..0. = Syn: Not set" size="1" pos="47" show="0" value="0" unmaskedvalue="18"/>
      <field name="tcp.flags.fin" showname=".... .... ...0 = Fin: Not set" size="1" pos="47" show="0" value="0" unmaskedvalue="18"/>
      <field name="tcp.flags.str" showname="TCP Flags: \xc2\xb7\xc2\xb7\xc2\xb7\xc2\xb7\xc2\xb7\xc2\xb7\xc2\xb7AP\xc2\xb7\xc2\xb7\xc2\xb7" size="2" pos="46" show="\xc2\xb7\xc2\xb7\xc2\xb7\xc2\xb7\xc2\xb7\xc2\xb7\xc2\xb7AP\xc2\xb7\xc2\xb7\xc2\xb7" value="5018"/>
    </field>
    <field name="tcp.window_size_value" showname="Window size value: 16384" size="2" pos="48" show="16384" value="4000"/>
    <field name="tcp.window_size" showname="Calculated window size: 16384" size="2" pos="48" show="16384" value="4000"/>
    <field name="tcp.window_size_scalefactor" showname="Window size scaling factor: -1 (unknown)" size="2" pos="48" show="-1" value="4000"/>
    <field name="tcp.checksum" showname="Checksum: 0xb463 [unverified]" size="2" pos="50" show="0x0000b463" value="b463"/>
    <field name="tcp.checksum.status" showname="Checksum Status: Unverified" size="0" pos="50" show="2"/>
    <field name="tcp.urgent_pointer" showname="Urgent pointer: 0" size="2" pos="52" show="0" value="0000"/>
    <field name="tcp.analysis" showname="SEQ/ACK analysis" size="0" pos="34" show="" value="">
      <field name="tcp.analysis.bytes_in_flight" showname="Bytes in flight: 24" size="0" pos="34" show="24"/>
      <field name="tcp.analysis.push_bytes_sent" showname="Bytes sent since last PSH flag: 24" size="0" pos="34" show="24"/>
    </field>
    <field name="" show="Timestamps" size="0" pos="34">
      <field name="tcp.time_relative" showname="Time since first frame in this TCP stream: 0.000000000 seconds" size="0" pos="34" show="0.000000000"/>
      <field name="tcp.time_delta" showname="Time since previous frame in this TCP stream: 0.000000000 seconds" size="0" pos="34" show="0.000000000"/>
    </field>
    <field name="tcp.payload" showname="TCP payload (24 bytes)" size="24" pos="54" show="04:00:00:00:00:00:00:00:00:00:00:00:00:00:00:00:00:00:00:00:00:00:00:00" value="040000000000000000000000000000000000000000000000"/>
    <field name="tcp.pdu.size" showname="PDU Size: 24" size="24" pos="54" show="24" value="040000000000000000000000000000000000000000000000"/>
  </proto>
  <proto name="enip" showname="EtherNet/IP (Industrial Protocol), Session: 0x00000000, List Services" size="24" pos="54">
    <field name="" show="Encapsulation Header" size="24" pos="54" value="040000000000000000000000000000000000000000000000">
      <field name="enip.command" showname="Command: List Services (0x0004)" size="2" pos="54" show="0x00000004" value="0400"/>
      <field name="enip.length" showname="Length: 0" size="2" pos="56" show="0" value="0000"/>
      <field name="enip.session" showname="Session Handle: 0x00000000" size="4" pos="58" show="0x00000000" value="00000000"/>
      <field name="enip.status" showname="Status: Success (0x00000000)" size="4" pos="62" show="0x00000000" value="00000000"/>
      <field name="enip.context" showname="Sender Context: 0000000000000000" size="8" pos="66" show="00:00:00:00:00:00:00:00" value="0000000000000000"/>
      <field name="enip.options" showname="Options: 0x00000000" size="4" pos="74" show="0x00000000" value="00000000"/>
    </field>
  </proto>
</packet>


<packet>
  <proto name="geninfo" pos="0" showname="General information" size="108">
    <field name="num" pos="0" show="4" showname="Number" value="4" size="108"/>
    <field name="len" pos="0" show="108" showname="Frame Length" value="6c" size="108"/>
    <field name="caplen" pos="0" show="108" showname="Captured Length" value="6c" size="108"/>
    <field name="timestamp" pos="0" show="Dec  3, 2003 23:35:03.977848000 CST" showname="Captured Time" value="1070465703.977848000" size="108"/>
  </proto>
  <proto name="frame" showname="Frame 4: 108 bytes on wire (864 bits), 108 bytes captured (864 bits)" size="108" pos="0">
    <field name="frame.encap_type" showname="Encapsulation type: Ethernet (1)" size="0" pos="0" show="1"/>
    <field name="frame.time" showname="Arrival Time: Dec  3, 2003 23:35:03.977848000 CST" size="0" pos="0" show="Dec  3, 2003 23:35:03.977848000 CST"/>
    <field name="frame.offset_shift" showname="Time shift for this packet: 0.000000000 seconds" size="0" pos="0" show="0.000000000"/>
    <field name="frame.time_epoch" showname="Epoch Time: 1070465703.977848000 seconds" size="0" pos="0" show="1070465703.977848000"/>
    <field name="frame.time_delta" showname="Time delta from previous captured frame: 0.005144000 seconds" size="0" pos="0" show="0.005144000"/>
    <field name="frame.time_delta_displayed" showname="Time delta from previous displayed frame: 0.005144000 seconds" size="0" pos="0" show="0.005144000"/>
    <field name="frame.time_relative" showname="Time since reference or first frame: 33.252375000 seconds" size="0" pos="0" show="33.252375000"/>
    <field name="frame.number" showname="Frame Number: 4" size="0" pos="0" show="4"/>
    <field name="frame.len" showname="Frame Length: 108 bytes (864 bits)" size="0" pos="0" show="108"/>
    <field name="frame.cap_len" showname="Capture Length: 108 bytes (864 bits)" size="0" pos="0" show="108"/>
    <field name="frame.marked" showname="Frame is marked: False" size="0" pos="0" show="0"/>
    <field name="frame.ignored" showname="Frame is ignored: False" size="0" pos="0" show="0"/>
    <field name="frame.protocols" showname="Protocols in frame: eth:ethertype:ip:tcp:enip" size="0" pos="0" show="eth:ethertype:ip:tcp:enip"/>
  </proto>
  <proto name="eth" showname="Ethernet II, Src: Rockwell_08:67:3e (00:00:bc:08:67:3e), Dst: Rockwell_05:68:b8 (00:00:bc:05:68:b8)" size="14" pos="0">
    <field name="eth.dst" showname="Destination: Rockwell_05:68:b8 (00:00:bc:05:68:b8)" size="6" pos="0" show="00:00:bc:05:68:b8" value="0000bc0568b8">
      <field name="eth.dst_resolved" showname="Destination (resolved): Rockwell_05:68:b8" hide="yes" size="6" pos="0" show="Rockwell_05:68:b8" value="0000bc0568b8"/>
      <field name="eth.dst.oui" showname="Destination OUI: 00:00:bc (Rockwell Automation)" hide="yes" size="3" pos="0" show="188" value="0000bc"/>
      <field name="eth.dst.oui_resolved" showname="Destination OUI (resolved): Rockwell Automation" hide="yes" size="6" pos="0" show="Rockwell Automation" value="0000bc0568b8"/>
      <field name="eth.addr" showname="Address: Rockwell_05:68:b8 (00:00:bc:05:68:b8)" size="6" pos="0" show="00:00:bc:05:68:b8" value="0000bc0568b8"/>
      <field name="eth.addr_resolved" showname="Address (resolved): Rockwell_05:68:b8" hide="yes" size="6" pos="0" show="Rockwell_05:68:b8" value="0000bc0568b8"/>
      <field name="eth.addr.oui" showname="Address OUI: 00:00:bc (Rockwell Automation)" hide="yes" size="3" pos="0" show="188" value="0000bc"/>
      <field name="eth.addr.oui_resolved" showname="Address OUI (resolved): Rockwell Automation" hide="yes" size="6" pos="0" show="Rockwell Automation" value="0000bc0568b8"/>
      <field name="eth.dst.lg" showname=".... ..0. .... .... .... .... = LG bit: Globally unique address (factory default)" size="3" pos="0" show="0" value="0" unmaskedvalue="0000bc"/>
      <field name="eth.lg" showname=".... ..0. .... .... .... .... = LG bit: Globally unique address (factory default)" hide="yes" size="3" pos="0" show="0" value="0" unmaskedvalue="0000bc"/>
      <field name="eth.dst.ig" showname=".... ...0 .... .... .... .... = IG bit: Individual address (unicast)" size="3" pos="0" show="0" value="0" unmaskedvalue="0000bc"/>
      <field name="eth.ig" showname=".... ...0 .... .... .... .... = IG bit: Individual address (unicast)" hide="yes" size="3" pos="0" show="0" value="0" unmaskedvalue="0000bc"/>
    </field>
    <field name="eth.src" showname="Source: Rockwell_08:67:3e (00:00:bc:08:67:3e)" size="6" pos="6" show="00:00:bc:08:67:3e" value="0000bc08673e">
      <field name="eth.src_resolved" showname="Source (resolved): Rockwell_08:67:3e" hide="yes" size="6" pos="6" show="Rockwell_08:67:3e" value="0000bc08673e"/>
      <field name="eth.src.oui" showname="Source OUI: 00:00:bc (Rockwell Automation)" hide="yes" size="3" pos="6" show="188" value="0000bc"/>
      <field name="eth.src.oui_resolved" showname="Source OUI (resolved): Rockwell Automation" hide="yes" size="6" pos="6" show="Rockwell Automation" value="0000bc08673e"/>
      <field name="eth.addr" showname="Address: Rockwell_08:67:3e (00:00:bc:08:67:3e)" size="6" pos="6" show="00:00:bc:08:67:3e" value="0000bc08673e"/>
      <field name="eth.addr_resolved" showname="Address (resolved): Rockwell_08:67:3e" hide="yes" size="6" pos="6" show="Rockwell_08:67:3e" value="0000bc08673e"/>
      <field name="eth.addr.oui" showname="Address OUI: 00:00:bc (Rockwell Automation)" hide="yes" size="3" pos="6" show="188" value="0000bc"/>
      <field name="eth.addr.oui_resolved" showname="Address OUI (resolved): Rockwell Automation" hide="yes" size="6" pos="6" show="Rockwell Automation" value="0000bc08673e"/>
      <field name="eth.src.lg" showname=".... ..0. .... .... .... .... = LG bit: Globally unique address (factory default)" size="3" pos="6" show="0" value="0" unmaskedvalue="0000bc"/>
      <field name="eth.lg" showname=".... ..0. .... .... .... .... = LG bit: Globally unique address (factory default)" hide="yes" size="3" pos="6" show="0" value="0" unmaskedvalue="0000bc"/>
      <field name="eth.src.ig" showname=".... ...0 .... .... .... .... = IG bit: Individual address (unicast)" size="3" pos="6" show="0" value="0" unmaskedvalue="0000bc"/>
      <field name="eth.ig" showname=".... ...0 .... .... .... .... = IG bit: Individual address (unicast)" hide="yes" size="3" pos="6" show="0" value="0" unmaskedvalue="0000bc"/>
    </field>
    <field name="eth.type" showname="Type: IPv4 (0x0800)" size="2" pos="12" show="0x00000800" value="0800"/>
    <field name="eth.fcs" showname="Frame check sequence: 0xd924ad9b [unverified]" size="4" pos="104" show="0xd924ad9b" value="d924ad9b"/>
    <field name="eth.fcs.status" showname="FCS Status: Unverified" size="0" pos="104" show="2"/>
  </proto>
  <proto name="ip" showname="Internet Protocol Version 4, Src: 192.168.100.36, Dst: 192.168.100.28" size="20" pos="14">
    <field name="ip.version" showname="0100 .... = Version: 4" size="1" pos="14" show="4" value="4" unmaskedvalue="45"/>
    <field name="ip.hdr_len" showname=".... 0101 = Header Length: 20 bytes (5)" size="1" pos="14" show="20" value="45"/>
    <field name="ip.dsfield" showname="Differentiated Services Field: 0x00 (DSCP: CS0, ECN: Not-ECT)" size="1" pos="15" show="0x00000000" value="00">
      <field name="ip.dsfield.dscp" showname="0000 00.. = Differentiated Services Codepoint: Default (0)" size="1" pos="15" show="0" value="0" unmaskedvalue="00"/>
      <field name="ip.dsfield.ecn" showname=".... ..00 = Explicit Congestion Notification: Not ECN-Capable Transport (0)" size="1" pos="15" show="0" value="0" unmaskedvalue="00"/>
    </field>
    <field name="ip.len" showname="Total Length: 90" size="2" pos="16" show="90" value="005a"/>
    <field name="ip.id" showname="Identification: 0x0022 (34)" size="2" pos="18" show="0x00000022" value="0022"/>
    <field name="ip.flags" showname="Flags: 0x0000" size="2" pos="20" show="0x00000000" value="0000">
      <field name="ip.flags.rb" showname="0... .... .... .... = Reserved bit: Not set" size="2" pos="20" show="0" value="0" unmaskedvalue="0000"/>
      <field name="ip.flags.df" showname=".0.. .... .... .... = Don&#x27;t fragment: Not set" size="2" pos="20" show="0" value="0" unmaskedvalue="0000"/>
      <field name="ip.flags.mf" showname="..0. .... .... .... = More fragments: Not set" size="2" pos="20" show="0" value="0" unmaskedvalue="0000"/>
    </field>
    <field name="ip.frag_offset" showname="Fragment offset: 0" size="2" pos="20" show="0" value="0000"/>
    <field name="ip.ttl" showname="Time to live: 64" size="1" pos="22" show="64" value="40"/>
    <field name="ip.proto" showname="Protocol: TCP (6)" size="1" pos="23" show="6" value="06"/>
    <field name="ip.checksum" showname="Header checksum: 0x30eb [validation disabled]" size="2" pos="24" show="0x000030eb" value="30eb"/>
    <field name="ip.checksum.status" showname="Header checksum status: Unverified" size="0" pos="24" show="2"/>
    <field name="ip.src" showname="Source: 192.168.100.36" size="4" pos="26" show="192.168.100.36" value="c0a86424"/>
    <field name="ip.addr" showname="Source or Destination Address: 192.168.100.36" hide="yes" size="4" pos="26" show="192.168.100.36" value="c0a86424"/>
    <field name="ip.src_host" showname="Source Host: 192.168.100.36" hide="yes" size="4" pos="26" show="192.168.100.36" value="c0a86424"/>
    <field name="ip.host" showname="Source or Destination Host: 192.168.100.36" hide="yes" size="4" pos="26" show="192.168.100.36" value="c0a86424"/>
    <field name="ip.dst" showname="Destination: 192.168.100.28" size="4" pos="30" show="192.168.100.28" value="c0a8641c"/>
    <field name="ip.addr" showname="Source or Destination Address: 192.168.100.28" hide="yes" size="4" pos="30" show="192.168.100.28" value="c0a8641c"/>
    <field name="ip.dst_host" showname="Destination Host: 192.168.100.28" hide="yes" size="4" pos="30" show="192.168.100.28" value="c0a8641c"/>
    <field name="ip.host" showname="Source or Destination Host: 192.168.100.28" hide="yes" size="4" pos="30" show="192.168.100.28" value="c0a8641c"/>
  </proto>
  <proto name="tcp" showname="Transmission Control Protocol, Src Port: 44818, Dst Port: 4497, Seq: 1, Ack: 25, Len: 50" size="20" pos="34">
    <field name="tcp.srcport" showname="Source Port: 44818" size="2" pos="34" show="44818" value="af12"/>
    <field name="tcp.dstport" showname="Destination Port: 4497" size="2" pos="36" show="4497" value="1191"/>
    <field name="tcp.port" showname="Source or Destination Port: 44818" hide="yes" size="2" pos="34" show="44818" value="af12"/>
    <field name="tcp.port" showname="Source or Destination Port: 4497" hide="yes" size="2" pos="36" show="4497" value="1191"/>
    <field name="tcp.stream" showname="Stream index: 2" size="0" pos="34" show="2"/>
    <field name="tcp.len" showname="TCP Segment Len: 50" size="1" pos="46" show="50" value="50"/>
    <field name="tcp.seq" showname="Sequence number: 1    (relative sequence number)" size="4" pos="38" show="1" value="819987db"/>
    <field name="tcp.seq_raw" showname="Sequence number (raw): 2174322651" size="4" pos="38" show="2174322651" value="819987db"/>
    <field name="tcp.nxtseq" showname="Next sequence number: 51    (relative sequence number)" size="0" pos="34" show="51"/>
    <field name="tcp.ack" showname="Acknowledgment number: 25    (relative ack number)" size="4" pos="42" show="25" value="53e84fd6"/>
    <field name="tcp.ack_raw" showname="Acknowledgment number (raw): 1407733718" size="4" pos="42" show="1407733718" value="53e84fd6"/>
    <field name="tcp.hdr_len" showname="0101 .... = Header Length: 20 bytes (5)" size="1" pos="46" show="20" value="50"/>
    <field name="tcp.flags" showname="Flags: 0x010 (ACK)" size="2" pos="46" show="0x00000010" value="10" unmaskedvalue="5010">
      <field name="tcp.flags.res" showname="000. .... .... = Reserved: Not set" size="1" pos="46" show="0" value="0" unmaskedvalue="50"/>
      <field name="tcp.flags.ns" showname="...0 .... .... = Nonce: Not set" size="1" pos="46" show="0" value="0" unmaskedvalue="50"/>
      <field name="tcp.flags.cwr" showname=".... 0... .... = Congestion Window Reduced (CWR): Not set" size="1" pos="47" show="0" value="0" unmaskedvalue="10"/>
      <field name="tcp.flags.ecn" showname=".... .0.. .... = ECN-Echo: Not set" size="1" pos="47" show="0" value="0" unmaskedvalue="10"/>
      <field name="tcp.flags.urg" showname=".... ..0. .... = Urgent: Not set" size="1" pos="47" show="0" value="0" unmaskedvalue="10"/>
      <field name="tcp.flags.ack" showname=".... ...1 .... = Acknowledgment: Set" size="1" pos="47" show="1" value="1" unmaskedvalue="10"/>
      <field name="tcp.flags.push" showname=".... .... 0... = Push: Not set" size="1" pos="47" show="0" value="0" unmaskedvalue="10"/>
      <field name="tcp.flags.reset" showname=".... .... .0.. = Reset: Not set" size="1" pos="47" show="0" value="0" unmaskedvalue="10"/>
      <field name="tcp.flags.syn" showname=".... .... ..0. = Syn: Not set" size="1" pos="47" show="0" value="0" unmaskedvalue="10"/>
      <field name="tcp.flags.fin" showname=".... .... ...0 = Fin: Not set" size="1" pos="47" show="0" value="0" unmaskedvalue="10"/>
      <field name="tcp.flags.str" showname="TCP Flags: \xc2\xb7\xc2\xb7\xc2\xb7\xc2\xb7\xc2\xb7\xc2\xb7\xc2\xb7A\xc2\xb7\xc2\xb7\xc2\xb7\xc2\xb7" size="2" pos="46" show="\xc2\xb7\xc2\xb7\xc2\xb7\xc2\xb7\xc2\xb7\xc2\xb7\xc2\xb7A\xc2\xb7\xc2\xb7\xc2\xb7\xc2\xb7" value="5010"/>
    </field>
    <field name="tcp.window_size_value" showname="Window size value: 16000" size="2" pos="48" show="16000" value="3e80"/>
    <field name="tcp.window_size" showname="Calculated window size: 16000" size="2" pos="48" show="16000" value="3e80"/>
    <field name="tcp.window_size_scalefactor" showname="Window size scaling factor: -1 (unknown)" size="2" pos="48" show="-1" value="3e80"/>
    <field name="tcp.checksum" showname="Checksum: 0x9cb1 [unverified]" size="2" pos="50" show="0x00009cb1" value="9cb1"/>
    <field name="tcp.checksum.status" showname="Checksum Status: Unverified" size="0" pos="50" show="2"/>
    <field name="tcp.urgent_pointer" showname="Urgent pointer: 0" size="2" pos="52" show="0" value="0000"/>
    <field name="tcp.analysis" showname="SEQ/ACK analysis" size="0" pos="34" show="" value="">
      <field name="tcp.analysis.acks_frame" showname="This is an ACK to the segment in frame: 3" size="0" pos="34" show="3"/>
      <field name="tcp.analysis.ack_rtt" showname="The RTT to ACK the segment was: 0.005144000 seconds" size="0" pos="34" show="0.005144000"/>
      <field name="tcp.analysis.bytes_in_flight" showname="Bytes in flight: 50" size="0" pos="34" show="50"/>
      <field name="tcp.analysis.push_bytes_sent" showname="Bytes sent since last PSH flag: 50" size="0" pos="34" show="50"/>
    </field>
    <field name="" show="Timestamps" size="0" pos="34">
      <field name="tcp.time_relative" showname="Time since first frame in this TCP stream: 0.005144000 seconds" size="0" pos="34" show="0.005144000"/>
      <field name="tcp.time_delta" showname="Time since previous frame in this TCP stream: 0.005144000 seconds" size="0" pos="34" show="0.005144000"/>
    </field>
    <field name="tcp.payload" showname="TCP payload (50 bytes)" size="50" pos="54" show="04:00:1a:00:00:00:00:00:00:00:00:00:00:00:00:00:00:00:00:00:00:00:00:00:01:00:00:01:14:00:01:00:20:01:43:6f:6d:6d:75:6e:69:63:61:74:69:6f:6e:73:00:00" value="04001a00000000000000000000000000000000000000000001000001140001002001436f6d6d756e69636174696f6e730000"/>
    <field name="tcp.pdu.size" showname="PDU Size: 50" size="50" pos="54" show="50" value="04001a00000000000000000000000000000000000000000001000001140001002001436f6d6d756e69636174696f6e730000"/>
  </proto>
  <proto name="enip" showname="EtherNet/IP (Industrial Protocol), Session: 0x00000000, List Services" size="50" pos="54">
    <field name="" show="Encapsulation Header" size="24" pos="54" value="04001a000000000000000000000000000000000000000000">
      <field name="enip.command" showname="Command: List Services (0x0004)" size="2" pos="54" show="0x00000004" value="0400"/>
      <field name="enip.length" showname="Length: 26" size="2" pos="56" show="26" value="1a00"/>
      <field name="enip.session" showname="Session Handle: 0x00000000" size="4" pos="58" show="0x00000000" value="00000000"/>
      <field name="enip.status" showname="Status: Success (0x00000000)" size="4" pos="62" show="0x00000000" value="00000000"/>
      <field name="enip.context" showname="Sender Context: 0000000000000000" size="8" pos="66" show="00:00:00:00:00:00:00:00" value="0000000000000000"/>
      <field name="enip.options" showname="Options: 0x00000000" size="4" pos="74" show="0x00000000" value="00000000"/>
    </field>
    <field name="" show="Command Specific Data" size="26" pos="78" value="01000001140001002001436f6d6d756e69636174696f6e730000">
      <field name="enip.cpf.itemcount" showname="Item Count: 1" size="2" pos="78" show="1" value="0100">
        <field name="enip.cpf.typeid" showname="Type ID: List Services Response (0x0100)" size="2" pos="80" show="0x00000100" value="0001">
          <field name="enip.cpf.length" showname="Length: 20" size="2" pos="82" show="20" value="1400"/>
          <field name="enip.encapver" showname="Encapsulation Version: 1" size="2" pos="84" show="1" value="0100"/>
          <field name="enip.lsr.capaflags" showname="Capability Flags: 0x0120, Supports CIP Encapsulation via TCP, Supports CIP Class 0 or 1 via UDP" size="2" pos="86" show="0x00000120" value="2001">
            <field name="enip.lsr.capaflags.tcp" showname=".... .... ..1. .... = Supports CIP Encapsulation via TCP: True" size="2" pos="86" show="1" value="1" unmaskedvalue="2001"/>
            <field name="enip.lsr.capaflags.udp" showname=".... ...1 .... .... = Supports CIP Class 0 or 1 via UDP: True" size="2" pos="86" show="1" value="1" unmaskedvalue="2001"/>
          </field>
          <field name="enip.lsr.servicename" showname="Name of Service: Communications" size="16" pos="88" show="Communications" value="436f6d6d756e69636174696f6e730000"/>
        </field>
      </field>
    </field>
  </proto>
</packet>


<packet>
  <proto name="geninfo" pos="0" showname="General information" size="86">
    <field name="num" pos="0" show="5" showname="Number" value="5" size="86"/>
    <field name="len" pos="0" show="86" showname="Frame Length" value="56" size="86"/>
    <field name="caplen" pos="0" show="86" showname="Captured Length" value="56" size="86"/>
    <field name="timestamp" pos="0" show="Dec  3, 2003 23:35:03.981014000 CST" showname="Captured Time" value="1070465703.981014000" size="86"/>
  </proto>
  <proto name="frame" showname="Frame 5: 86 bytes on wire (688 bits), 86 bytes captured (688 bits)" size="86" pos="0">
    <field name="frame.encap_type" showname="Encapsulation type: Ethernet (1)" size="0" pos="0" show="1"/>
    <field name="frame.time" showname="Arrival Time: Dec  3, 2003 23:35:03.981014000 CST" size="0" pos="0" show="Dec  3, 2003 23:35:03.981014000 CST"/>
    <field name="frame.offset_shift" showname="Time shift for this packet: 0.000000000 seconds" size="0" pos="0" show="0.000000000"/>
    <field name="frame.time_epoch" showname="Epoch Time: 1070465703.981014000 seconds" size="0" pos="0" show="1070465703.981014000"/>
    <field name="frame.time_delta" showname="Time delta from previous captured frame: 0.003166000 seconds" size="0" pos="0" show="0.003166000"/>
    <field name="frame.time_delta_displayed" showname="Time delta from previous displayed frame: 0.003166000 seconds" size="0" pos="0" show="0.003166000"/>
    <field name="frame.time_relative" showname="Time since reference or first frame: 33.255541000 seconds" size="0" pos="0" show="33.255541000"/>
    <field name="frame.number" showname="Frame Number: 5" size="0" pos="0" show="5"/>
    <field name="frame.len" showname="Frame Length: 86 bytes (688 bits)" size="0" pos="0" show="86"/>
    <field name="frame.cap_len" showname="Capture Length: 86 bytes (688 bits)" size="0" pos="0" show="86"/>
    <field name="frame.marked" showname="Frame is marked: False" size="0" pos="0" show="0"/>
    <field name="frame.ignored" showname="Frame is ignored: False" size="0" pos="0" show="0"/>
    <field name="frame.protocols" showname="Protocols in frame: eth:ethertype:ip:tcp:enip" size="0" pos="0" show="eth:ethertype:ip:tcp:enip"/>
  </proto>
  <proto name="eth" showname="Ethernet II, Src: Rockwell_05:68:b8 (00:00:bc:05:68:b8), Dst: Rockwell_08:67:3e (00:00:bc:08:67:3e)" size="14" pos="0">
    <field name="eth.dst" showname="Destination: Rockwell_08:67:3e (00:00:bc:08:67:3e)" size="6" pos="0" show="00:00:bc:08:67:3e" value="0000bc08673e">
      <field name="eth.dst_resolved" showname="Destination (resolved): Rockwell_08:67:3e" hide="yes" size="6" pos="0" show="Rockwell_08:67:3e" value="0000bc08673e"/>
      <field name="eth.dst.oui" showname="Destination OUI: 00:00:bc (Rockwell Automation)" hide="yes" size="3" pos="0" show="188" value="0000bc"/>
      <field name="eth.dst.oui_resolved" showname="Destination OUI (resolved): Rockwell Automation" hide="yes" size="6" pos="0" show="Rockwell Automation" value="0000bc08673e"/>
      <field name="eth.addr" showname="Address: Rockwell_08:67:3e (00:00:bc:08:67:3e)" size="6" pos="0" show="00:00:bc:08:67:3e" value="0000bc08673e"/>
      <field name="eth.addr_resolved" showname="Address (resolved): Rockwell_08:67:3e" hide="yes" size="6" pos="0" show="Rockwell_08:67:3e" value="0000bc08673e"/>
      <field name="eth.addr.oui" showname="Address OUI: 00:00:bc (Rockwell Automation)" hide="yes" size="3" pos="0" show="188" value="0000bc"/>
      <field name="eth.addr.oui_resolved" showname="Address OUI (resolved): Rockwell Automation" hide="yes" size="6" pos="0" show="Rockwell Automation" value="0000bc08673e"/>
      <field name="eth.dst.lg" showname=".... ..0. .... .... .... .... = LG bit: Globally unique address (factory default)" size="3" pos="0" show="0" value="0" unmaskedvalue="0000bc"/>
      <field name="eth.lg" showname=".... ..0. .... .... .... .... = LG bit: Globally unique address (factory default)" hide="yes" size="3" pos="0" show="0" value="0" unmaskedvalue="0000bc"/>
      <field name="eth.dst.ig" showname=".... ...0 .... .... .... .... = IG bit: Individual address (unicast)" size="3" pos="0" show="0" value="0" unmaskedvalue="0000bc"/>
      <field name="eth.ig" showname=".... ...0 .... .... .... .... = IG bit: Individual address (unicast)" hide="yes" size="3" pos="0" show="0" value="0" unmaskedvalue="0000bc"/>
    </field>
    <field name="eth.src" showname="Source: Rockwell_05:68:b8 (00:00:bc:05:68:b8)" size="6" pos="6" show="00:00:bc:05:68:b8" value="0000bc0568b8">
      <field name="eth.src_resolved" showname="Source (resolved): Rockwell_05:68:b8" hide="yes" size="6" pos="6" show="Rockwell_05:68:b8" value="0000bc0568b8"/>
      <field name="eth.src.oui" showname="Source OUI: 00:00:bc (Rockwell Automation)" hide="yes" size="3" pos="6" show="188" value="0000bc"/>
      <field name="eth.src.oui_resolved" showname="Source OUI (resolved): Rockwell Automation" hide="yes" size="6" pos="6" show="Rockwell Automation" value="0000bc0568b8"/>
      <field name="eth.addr" showname="Address: Rockwell_05:68:b8 (00:00:bc:05:68:b8)" size="6" pos="6" show="00:00:bc:05:68:b8" value="0000bc0568b8"/>
      <field name="eth.addr_resolved" showname="Address (resolved): Rockwell_05:68:b8" hide="yes" size="6" pos="6" show="Rockwell_05:68:b8" value="0000bc0568b8"/>
      <field name="eth.addr.oui" showname="Address OUI: 00:00:bc (Rockwell Automation)" hide="yes" size="3" pos="6" show="188" value="0000bc"/>
      <field name="eth.addr.oui_resolved" showname="Address OUI (resolved): Rockwell Automation" hide="yes" size="6" pos="6" show="Rockwell Automation" value="0000bc0568b8"/>
      <field name="eth.src.lg" showname=".... ..0. .... .... .... .... = LG bit: Globally unique address (factory default)" size="3" pos="6" show="0" value="0" unmaskedvalue="0000bc"/>
      <field name="eth.lg" showname=".... ..0. .... .... .... .... = LG bit: Globally unique address (factory default)" hide="yes" size="3" pos="6" show="0" value="0" unmaskedvalue="0000bc"/>
      <field name="eth.src.ig" showname=".... ...0 .... .... .... .... = IG bit: Individual address (unicast)" size="3" pos="6" show="0" value="0" unmaskedvalue="0000bc"/>
      <field name="eth.ig" showname=".... ...0 .... .... .... .... = IG bit: Individual address (unicast)" hide="yes" size="3" pos="6" show="0" value="0" unmaskedvalue="0000bc"/>
    </field>
    <field name="eth.type" showname="Type: IPv4 (0x0800)" size="2" pos="12" show="0x00000800" value="0800"/>
    <field name="eth.fcs" showname="Frame check sequence: 0x7e7772d0 [unverified]" size="4" pos="82" show="0x7e7772d0" value="7e7772d0"/>
    <field name="eth.fcs.status" showname="FCS Status: Unverified" size="0" pos="82" show="2"/>
  </proto>
  <proto name="ip" showname="Internet Protocol Version 4, Src: 192.168.100.28, Dst: 192.168.100.36" size="20" pos="14">
    <field name="ip.version" showname="0100 .... = Version: 4" size="1" pos="14" show="4" value="4" unmaskedvalue="45"/>
    <field name="ip.hdr_len" showname=".... 0101 = Header Length: 20 bytes (5)" size="1" pos="14" show="20" value="45"/>
    <field name="ip.dsfield" showname="Differentiated Services Field: 0x00 (DSCP: CS0, ECN: Not-ECT)" size="1" pos="15" show="0x00000000" value="00">
      <field name="ip.dsfield.dscp" showname="0000 00.. = Differentiated Services Codepoint: Default (0)" size="1" pos="15" show="0" value="0" unmaskedvalue="00"/>
      <field name="ip.dsfield.ecn" showname=".... ..00 = Explicit Congestion Notification: Not ECN-Capable Transport (0)" size="1" pos="15" show="0" value="0" unmaskedvalue="00"/>
    </field>
    <field name="ip.len" showname="Total Length: 68" size="2" pos="16" show="68" value="0044"/>
    <field name="ip.id" showname="Identification: 0x60d8 (24792)" size="2" pos="18" show="0x000060d8" value="60d8"/>
    <field name="ip.flags" showname="Flags: 0x0000" size="2" pos="20" show="0x00000000" value="0000">
      <field name="ip.flags.rb" showname="0... .... .... .... = Reserved bit: Not set" size="2" pos="20" show="0" value="0" unmaskedvalue="0000"/>
      <field name="ip.flags.df" showname=".0.. .... .... .... = Don&#x27;t fragment: Not set" size="2" pos="20" show="0" value="0" unmaskedvalue="0000"/>
      <field name="ip.flags.mf" showname="..0. .... .... .... = More fragments: Not set" size="2" pos="20" show="0" value="0" unmaskedvalue="0000"/>
    </field>
    <field name="ip.frag_offset" showname="Fragment offset: 0" size="2" pos="20" show="0" value="0000"/>
    <field name="ip.ttl" showname="Time to live: 64" size="1" pos="22" show="64" value="40"/>
    <field name="ip.proto" showname="Protocol: TCP (6)" size="1" pos="23" show="6" value="06"/>
    <field name="ip.checksum" showname="Header checksum: 0xd04a [validation disabled]" size="2" pos="24" show="0x0000d04a" value="d04a"/>
    <field name="ip.checksum.status" showname="Header checksum status: Unverified" size="0" pos="24" show="2"/>
    <field name="ip.src" showname="Source: 192.168.100.28" size="4" pos="26" show="192.168.100.28" value="c0a8641c"/>
    <field name="ip.addr" showname="Source or Destination Address: 192.168.100.28" hide="yes" size="4" pos="26" show="192.168.100.28" value="c0a8641c"/>
    <field name="ip.src_host" showname="Source Host: 192.168.100.28" hide="yes" size="4" pos="26" show="192.168.100.28" value="c0a8641c"/>
    <field name="ip.host" showname="Source or Destination Host: 192.168.100.28" hide="yes" size="4" pos="26" show="192.168.100.28" value="c0a8641c"/>
    <field name="ip.dst" showname="Destination: 192.168.100.36" size="4" pos="30" show="192.168.100.36" value="c0a86424"/>
    <field name="ip.addr" showname="Source or Destination Address: 192.168.100.36" hide="yes" size="4" pos="30" show="192.168.100.36" value="c0a86424"/>
    <field name="ip.dst_host" showname="Destination Host: 192.168.100.36" hide="yes" size="4" pos="30" show="192.168.100.36" value="c0a86424"/>
    <field name="ip.host" showname="Source or Destination Host: 192.168.100.36" hide="yes" size="4" pos="30" show="192.168.100.36" value="c0a86424"/>
  </proto>
  <proto name="tcp" showname="Transmission Control Protocol, Src Port: 4497, Dst Port: 44818, Seq: 25, Ack: 51, Len: 28" size="20" pos="34">
    <field name="tcp.srcport" showname="Source Port: 4497" size="2" pos="34" show="4497" value="1191"/>
    <field name="tcp.dstport" showname="Destination Port: 44818" size="2" pos="36" show="44818" value="af12"/>
    <field name="tcp.port" showname="Source or Destination Port: 4497" hide="yes" size="2" pos="34" show="4497" value="1191"/>
    <field name="tcp.port" showname="Source or Destination Port: 44818" hide="yes" size="2" pos="36" show="44818" value="af12"/>
    <field name="tcp.stream" showname="Stream index: 2" size="0" pos="34" show="2"/>
    <field name="tcp.len" showname="TCP Segment Len: 28" size="1" pos="46" show="28" value="50"/>
    <field name="tcp.seq" showname="Sequence number: 25    (relative sequence number)" size="4" pos="38" show="25" value="53e84fd6"/>
    <field name="tcp.seq_raw" showname="Sequence number (raw): 1407733718" size="4" pos="38" show="1407733718" value="53e84fd6"/>
    <field name="tcp.nxtseq" showname="Next sequence number: 53    (relative sequence number)" size="0" pos="34" show="53"/>
    <field name="tcp.ack" showname="Acknowledgment number: 51    (relative ack number)" size="4" pos="42" show="51" value="8199880d"/>
    <field name="tcp.ack_raw" showname="Acknowledgment number (raw): 2174322701" size="4" pos="42" show="2174322701" value="8199880d"/>
    <field name="tcp.hdr_len" showname="0101 .... = Header Length: 20 bytes (5)" size="1" pos="46" show="20" value="50"/>
    <field name="tcp.flags" showname="Flags: 0x018 (PSH, ACK)" size="2" pos="46" show="0x00000018" value="18" unmaskedvalue="5018">
      <field name="tcp.flags.res" showname="000. .... .... = Reserved: Not set" size="1" pos="46" show="0" value="0" unmaskedvalue="50"/>
      <field name="tcp.flags.ns" showname="...0 .... .... = Nonce: Not set" size="1" pos="46" show="0" value="0" unmaskedvalue="50"/>
      <field name="tcp.flags.cwr" showname=".... 0... .... = Congestion Window Reduced (CWR): Not set" size="1" pos="47" show="0" value="0" unmaskedvalue="18"/>
      <field name="tcp.flags.ecn" showname=".... .0.. .... = ECN-Echo: Not set" size="1" pos="47" show="0" value="0" unmaskedvalue="18"/>
      <field name="tcp.flags.urg" showname=".... ..0. .... = Urgent: Not set" size="1" pos="47" show="0" value="0" unmaskedvalue="18"/>
      <field name="tcp.flags.ack" showname=".... ...1 .... = Acknowledgment: Set" size="1" pos="47" show="1" value="1" unmaskedvalue="18"/>
      <field name="tcp.flags.push" showname=".... .... 1... = Push: Set" size="1" pos="47" show="1" value="1" unmaskedvalue="18"/>
      <field name="tcp.flags.reset" showname=".... .... .0.. = Reset: Not set" size="1" pos="47" show="0" value="0" unmaskedvalue="18"/>
      <field name="tcp.flags.syn" showname=".... .... ..0. = Syn: Not set" size="1" pos="47" show="0" value="0" unmaskedvalue="18"/>
      <field name="tcp.flags.fin" showname=".... .... ...0 = Fin: Not set" size="1" pos="47" show="0" value="0" unmaskedvalue="18"/>
      <field name="tcp.flags.str" showname="TCP Flags: \xc2\xb7\xc2\xb7\xc2\xb7\xc2\xb7\xc2\xb7\xc2\xb7\xc2\xb7AP\xc2\xb7\xc2\xb7\xc2\xb7" size="2" pos="46" show="\xc2\xb7\xc2\xb7\xc2\xb7\xc2\xb7\xc2\xb7\xc2\xb7\xc2\xb7AP\xc2\xb7\xc2\xb7\xc2\xb7" value="5018"/>
    </field>
    <field name="tcp.window_size_value" showname="Window size value: 16384" size="2" pos="48" show="16384" value="4000"/>
    <field name="tcp.window_size" showname="Calculated window size: 16384" size="2" pos="48" show="16384" value="4000"/>
    <field name="tcp.window_size_scalefactor" showname="Window size scaling factor: -1 (unknown)" size="2" pos="48" show="-1" value="4000"/>
    <field name="tcp.checksum" showname="Checksum: 0x4e15 [unverified]" size="2" pos="50" show="0x00004e15" value="4e15"/>
    <field name="tcp.checksum.status" showname="Checksum Status: Unverified" size="0" pos="50" show="2"/>
    <field name="tcp.urgent_pointer" showname="Urgent pointer: 0" size="2" pos="52" show="0" value="0000"/>
    <field name="tcp.analysis" showname="SEQ/ACK analysis" size="0" pos="34" show="" value="">
      <field name="tcp.analysis.acks_frame" showname="This is an ACK to the segment in frame: 4" size="0" pos="34" show="4"/>
      <field name="tcp.analysis.ack_rtt" showname="The RTT to ACK the segment was: 0.003166000 seconds" size="0" pos="34" show="0.003166000"/>
      <field name="tcp.analysis.bytes_in_flight" showname="Bytes in flight: 28" size="0" pos="34" show="28"/>
      <field name="tcp.analysis.push_bytes_sent" showname="Bytes sent since last PSH flag: 28" size="0" pos="34" show="28"/>
    </field>
    <field name="" show="Timestamps" size="0" pos="34">
      <field name="tcp.time_relative" showname="Time since first frame in this TCP stream: 0.008310000 seconds" size="0" pos="34" show="0.008310000"/>
      <field name="tcp.time_delta" showname="Time since previous frame in this TCP stream: 0.003166000 seconds" size="0" pos="34" show="0.003166000"/>
    </field>
    <field name="tcp.payload" showname="TCP payload (28 bytes)" size="28" pos="54" show="65:00:04:00:00:00:00:00:00:00:00:00:00:00:00:00:00:00:00:00:00:00:00:00:01:00:00:00" value="65000400000000000000000000000000000000000000000001000000"/>
    <field name="tcp.pdu.size" showname="PDU Size: 28" size="28" pos="54" show="28" value="65000400000000000000000000000000000000000000000001000000"/>
  </proto>
  <proto name="enip" showname="EtherNet/IP (Industrial Protocol), Session: 0x00000000, Register Session" size="28" pos="54">
    <field name="" show="Encapsulation Header" size="24" pos="54" value="650004000000000000000000000000000000000000000000">
      <field name="enip.command" showname="Command: Register Session (0x0065)" size="2" pos="54" show="0x00000065" value="6500"/>
      <field name="enip.length" showname="Length: 4" size="2" pos="56" show="4" value="0400"/>
      <field name="enip.session" showname="Session Handle: 0x00000000" size="4" pos="58" show="0x00000000" value="00000000"/>
      <field name="enip.status" showname="Status: Success (0x00000000)" size="4" pos="62" show="0x00000000" value="00000000"/>
      <field name="enip.context" showname="Sender Context: 0000000000000000" size="8" pos="66" show="00:00:00:00:00:00:00:00" value="0000000000000000"/>
      <field name="enip.options" showname="Options: 0x00000000" size="4" pos="74" show="0x00000000" value="00000000"/>
    </field>
    <field name="" show="Command Specific Data" size="4" pos="78" value="01000000">
      <field name="enip.rs.version" showname="Protocol Version: 1" size="2" pos="78" show="1" value="0100"/>
      <field name="enip.rs.flags" showname="Option Flags: 0x0000" size="2" pos="80" show="0x00000000" value="0000"/>
    </field>
  </proto>
</packet>


<packet>
  <proto name="geninfo" pos="0" showname="General information" size="86">
    <field name="num" pos="0" show="6" showname="Number" value="6" size="86"/>
    <field name="len" pos="0" show="86" showname="Frame Length" value="56" size="86"/>
    <field name="caplen" pos="0" show="86" showname="Captured Length" value="56" size="86"/>
    <field name="timestamp" pos="0" show="Dec  3, 2003 23:35:03.985724000 CST" showname="Captured Time" value="1070465703.985724000" size="86"/>
  </proto>
  <proto name="frame" showname="Frame 6: 86 bytes on wire (688 bits), 86 bytes captured (688 bits)" size="86" pos="0">
    <field name="frame.encap_type" showname="Encapsulation type: Ethernet (1)" size="0" pos="0" show="1"/>
    <field name="frame.time" showname="Arrival Time: Dec  3, 2003 23:35:03.985724000 CST" size="0" pos="0" show="Dec  3, 2003 23:35:03.985724000 CST"/>
    <field name="frame.offset_shift" showname="Time shift for this packet: 0.000000000 seconds" size="0" pos="0" show="0.000000000"/>
    <field name="frame.time_epoch" showname="Epoch Time: 1070465703.985724000 seconds" size="0" pos="0" show="1070465703.985724000"/>
    <field name="frame.time_delta" showname="Time delta from previous captured frame: 0.004710000 seconds" size="0" pos="0" show="0.004710000"/>
    <field name="frame.time_delta_displayed" showname="Time delta from previous displayed frame: 0.004710000 seconds" size="0" pos="0" show="0.004710000"/>
    <field name="frame.time_relative" showname="Time since reference or first frame: 33.260251000 seconds" size="0" pos="0" show="33.260251000"/>
    <field name="frame.number" showname="Frame Number: 6" size="0" pos="0" show="6"/>
    <field name="frame.len" showname="Frame Length: 86 bytes (688 bits)" size="0" pos="0" show="86"/>
    <field name="frame.cap_len" showname="Capture Length: 86 bytes (688 bits)" size="0" pos="0" show="86"/>
    <field name="frame.marked" showname="Frame is marked: False" size="0" pos="0" show="0"/>
    <field name="frame.ignored" showname="Frame is ignored: False" size="0" pos="0" show="0"/>
    <field name="frame.protocols" showname="Protocols in frame: eth:ethertype:ip:tcp:enip" size="0" pos="0" show="eth:ethertype:ip:tcp:enip"/>
  </proto>
  <proto name="eth" showname="Ethernet II, Src: Rockwell_08:67:3e (00:00:bc:08:67:3e), Dst: Rockwell_05:68:b8 (00:00:bc:05:68:b8)" size="14" pos="0">
    <field name="eth.dst" showname="Destination: Rockwell_05:68:b8 (00:00:bc:05:68:b8)" size="6" pos="0" show="00:00:bc:05:68:b8" value="0000bc0568b8">
      <field name="eth.dst_resolved" showname="Destination (resolved): Rockwell_05:68:b8" hide="yes" size="6" pos="0" show="Rockwell_05:68:b8" value="0000bc0568b8"/>
      <field name="eth.dst.oui" showname="Destination OUI: 00:00:bc (Rockwell Automation)" hide="yes" size="3" pos="0" show="188" value="0000bc"/>
      <field name="eth.dst.oui_resolved" showname="Destination OUI (resolved): Rockwell Automation" hide="yes" size="6" pos="0" show="Rockwell Automation" value="0000bc0568b8"/>
      <field name="eth.addr" showname="Address: Rockwell_05:68:b8 (00:00:bc:05:68:b8)" size="6" pos="0" show="00:00:bc:05:68:b8" value="0000bc0568b8"/>
      <field name="eth.addr_resolved" showname="Address (resolved): Rockwell_05:68:b8" hide="yes" size="6" pos="0" show="Rockwell_05:68:b8" value="0000bc0568b8"/>
      <field name="eth.addr.oui" showname="Address OUI: 00:00:bc (Rockwell Automation)" hide="yes" size="3" pos="0" show="188" value="0000bc"/>
      <field name="eth.addr.oui_resolved" showname="Address OUI (resolved): Rockwell Automation" hide="yes" size="6" pos="0" show="Rockwell Automation" value="0000bc0568b8"/>
      <field name="eth.dst.lg" showname=".... ..0. .... .... .... .... = LG bit: Globally unique address (factory default)" size="3" pos="0" show="0" value="0" unmaskedvalue="0000bc"/>
      <field name="eth.lg" showname=".... ..0. .... .... .... .... = LG bit: Globally unique address (factory default)" hide="yes" size="3" pos="0" show="0" value="0" unmaskedvalue="0000bc"/>
      <field name="eth.dst.ig" showname=".... ...0 .... .... .... .... = IG bit: Individual address (unicast)" size="3" pos="0" show="0" value="0" unmaskedvalue="0000bc"/>
      <field name="eth.ig" showname=".... ...0 .... .... .... .... = IG bit: Individual address (unicast)" hide="yes" size="3" pos="0" show="0" value="0" unmaskedvalue="0000bc"/>
    </field>
    <field name="eth.src" showname="Source: Rockwell_08:67:3e (00:00:bc:08:67:3e)" size="6" pos="6" show="00:00:bc:08:67:3e" value="0000bc08673e">
      <field name="eth.src_resolved" showname="Source (resolved): Rockwell_08:67:3e" hide="yes" size="6" pos="6" show="Rockwell_08:67:3e" value="0000bc08673e"/>
      <field name="eth.src.oui" showname="Source OUI: 00:00:bc (Rockwell Automation)" hide="yes" size="3" pos="6" show="188" value="0000bc"/>
      <field name="eth.src.oui_resolved" showname="Source OUI (resolved): Rockwell Automation" hide="yes" size="6" pos="6" show="Rockwell Automation" value="0000bc08673e"/>
      <field name="eth.addr" showname="Address: Rockwell_08:67:3e (00:00:bc:08:67:3e)" size="6" pos="6" show="00:00:bc:08:67:3e" value="0000bc08673e"/>
      <field name="eth.addr_resolved" showname="Address (resolved): Rockwell_08:67:3e" hide="yes" size="6" pos="6" show="Rockwell_08:67:3e" value="0000bc08673e"/>
      <field name="eth.addr.oui" showname="Address OUI: 00:00:bc (Rockwell Automation)" hide="yes" size="3" pos="6" show="188" value="0000bc"/>
      <field name="eth.addr.oui_resolved" showname="Address OUI (resolved): Rockwell Automation" hide="yes" size="6" pos="6" show="Rockwell Automation" value="0000bc08673e"/>
      <field name="eth.src.lg" showname=".... ..0. .... .... .... .... = LG bit: Globally unique address (factory default)" size="3" pos="6" show="0" value="0" unmaskedvalue="0000bc"/>
      <field name="eth.lg" showname=".... ..0. .... .... .... .... = LG bit: Globally unique address (factory default)" hide="yes" size="3" pos="6" show="0" value="0" unmaskedvalue="0000bc"/>
      <field name="eth.src.ig" showname=".... ...0 .... .... .... .... = IG bit: Individual address (unicast)" size="3" pos="6" show="0" value="0" unmaskedvalue="0000bc"/>
      <field name="eth.ig" showname=".... ...0 .... .... .... .... = IG bit: Individual address (unicast)" hide="yes" size="3" pos="6" show="0" value="0" unmaskedvalue="0000bc"/>
    </field>
    <field name="eth.type" showname="Type: IPv4 (0x0800)" size="2" pos="12" show="0x00000800" value="0800"/>
    <field name="eth.fcs" showname="Frame check sequence: 0x56389f9b [unverified]" size="4" pos="82" show="0x56389f9b" value="56389f9b"/>
    <field name="eth.fcs.status" showname="FCS Status: Unverified" size="0" pos="82" show="2"/>
  </proto>
  <proto name="ip" showname="Internet Protocol Version 4, Src: 192.168.100.36, Dst: 192.168.100.28" size="20" pos="14">
    <field name="ip.version" showname="0100 .... = Version: 4" size="1" pos="14" show="4" value="4" unmaskedvalue="45"/>
    <field name="ip.hdr_len" showname=".... 0101 = Header Length: 20 bytes (5)" size="1" pos="14" show="20" value="45"/>
    <field name="ip.dsfield" showname="Differentiated Services Field: 0x00 (DSCP: CS0, ECN: Not-ECT)" size="1" pos="15" show="0x00000000" value="00">
      <field name="ip.dsfield.dscp" showname="0000 00.. = Differentiated Services Codepoint: Default (0)" size="1" pos="15" show="0" value="0" unmaskedvalue="00"/>
      <field name="ip.dsfield.ecn" showname=".... ..00 = Explicit Congestion Notification: Not ECN-Capable Transport (0)" size="1" pos="15" show="0" value="0" unmaskedvalue="00"/>
    </field>
    <field name="ip.len" showname="Total Length: 68" size="2" pos="16" show="68" value="0044"/>
    <field name="ip.id" showname="Identification: 0x0023 (35)" size="2" pos="18" show="0x00000023" value="0023"/>
    <field name="ip.flags" showname="Flags: 0x0000" size="2" pos="20" show="0x00000000" value="0000">
      <field name="ip.flags.rb" showname="0... .... .... .... = Reserved bit: Not set" size="2" pos="20" show="0" value="0" unmaskedvalue="0000"/>
      <field name="ip.flags.df" showname=".0.. .... .... .... = Don&#x27;t fragment: Not set" size="2" pos="20" show="0" value="0" unmaskedvalue="0000"/>
      <field name="ip.flags.mf" showname="..0. .... .... .... = More fragments: Not set" size="2" pos="20" show="0" value="0" unmaskedvalue="0000"/>
    </field>
    <field name="ip.frag_offset" showname="Fragment offset: 0" size="2" pos="20" show="0" value="0000"/>
    <field name="ip.ttl" showname="Time to live: 64" size="1" pos="22" show="64" value="40"/>
    <field name="ip.proto" showname="Protocol: TCP (6)" size="1" pos="23" show="6" value="06"/>
    <field name="ip.checksum" showname="Header checksum: 0x3100 [validation disabled]" size="2" pos="24" show="0x00003100" value="3100"/>
    <field name="ip.checksum.status" showname="Header checksum status: Unverified" size="0" pos="24" show="2"/>
    <field name="ip.src" showname="Source: 192.168.100.36" size="4" pos="26" show="192.168.100.36" value="c0a86424"/>
    <field name="ip.addr" showname="Source or Destination Address: 192.168.100.36" hide="yes" size="4" pos="26" show="192.168.100.36" value="c0a86424"/>
    <field name="ip.src_host" showname="Source Host: 192.168.100.36" hide="yes" size="4" pos="26" show="192.168.100.36" value="c0a86424"/>
    <field name="ip.host" showname="Source or Destination Host: 192.168.100.36" hide="yes" size="4" pos="26" show="192.168.100.36" value="c0a86424"/>
    <field name="ip.dst" showname="Destination: 192.168.100.28" size="4" pos="30" show="192.168.100.28" value="c0a8641c"/>
    <field name="ip.addr" showname="Source or Destination Address: 192.168.100.28" hide="yes" size="4" pos="30" show="192.168.100.28" value="c0a8641c"/>
    <field name="ip.dst_host" showname="Destination Host: 192.168.100.28" hide="yes" size="4" pos="30" show="192.168.100.28" value="c0a8641c"/>
    <field name="ip.host" showname="Source or Destination Host: 192.168.100.28" hide="yes" size="4" pos="30" show="192.168.100.28" value="c0a8641c"/>
  </proto>
  <proto name="tcp" showname="Transmission Control Protocol, Src Port: 44818, Dst Port: 4497, Seq: 51, Ack: 53, Len: 28" size="20" pos="34">
    <field name="tcp.srcport" showname="Source Port: 44818" size="2" pos="34" show="44818" value="af12"/>
    <field name="tcp.dstport" showname="Destination Port: 4497" size="2" pos="36" show="4497" value="1191"/>
    <field name="tcp.port" showname="Source or Destination Port: 44818" hide="yes" size="2" pos="34" show="44818" value="af12"/>
    <field name="tcp.port" showname="Source or Destination Port: 4497" hide="yes" size="2" pos="36" show="4497" value="1191"/>
    <field name="tcp.stream" showname="Stream index: 2" size="0" pos="34" show="2"/>
    <field name="tcp.len" showname="TCP Segment Len: 28" size="1" pos="46" show="28" value="50"/>
    <field name="tcp.seq" showname="Sequence number: 51    (relative sequence number)" size="4" pos="38" show="51" value="8199880d"/>
    <field name="tcp.seq_raw" showname="Sequence number (raw): 2174322701" size="4" pos="38" show="2174322701" value="8199880d"/>
    <field name="tcp.nxtseq" showname="Next sequence number: 79    (relative sequence number)" size="0" pos="34" show="79"/>
    <field name="tcp.ack" showname="Acknowledgment number: 53    (relative ack number)" size="4" pos="42" show="53" value="53e84ff2"/>
    <field name="tcp.ack_raw" showname="Acknowledgment number (raw): 1407733746" size="4" pos="42" show="1407733746" value="53e84ff2"/>
    <field name="tcp.hdr_len" showname="0101 .... = Header Length: 20 bytes (5)" size="1" pos="46" show="20" value="50"/>
    <field name="tcp.flags" showname="Flags: 0x010 (ACK)" size="2" pos="46" show="0x00000010" value="10" unmaskedvalue="5010">
      <field name="tcp.flags.res" showname="000. .... .... = Reserved: Not set" size="1" pos="46" show="0" value="0" unmaskedvalue="50"/>
      <field name="tcp.flags.ns" showname="...0 .... .... = Nonce: Not set" size="1" pos="46" show="0" value="0" unmaskedvalue="50"/>
      <field name="tcp.flags.cwr" showname=".... 0... .... = Congestion Window Reduced (CWR): Not set" size="1" pos="47" show="0" value="0" unmaskedvalue="10"/>
      <field name="tcp.flags.ecn" showname=".... .0.. .... = ECN-Echo: Not set" size="1" pos="47" show="0" value="0" unmaskedvalue="10"/>
      <field name="tcp.flags.urg" showname=".... ..0. .... = Urgent: Not set" size="1" pos="47" show="0" value="0" unmaskedvalue="10"/>
      <field name="tcp.flags.ack" showname=".... ...1 .... = Acknowledgment: Set" size="1" pos="47" show="1" value="1" unmaskedvalue="10"/>
      <field name="tcp.flags.push" showname=".... .... 0... = Push: Not set" size="1" pos="47" show="0" value="0" unmaskedvalue="10"/>
      <field name="tcp.flags.reset" showname=".... .... .0.. = Reset: Not set" size="1" pos="47" show="0" value="0" unmaskedvalue="10"/>
      <field name="tcp.flags.syn" showname=".... .... ..0. = Syn: Not set" size="1" pos="47" show="0" value="0" unmaskedvalue="10"/>
      <field name="tcp.flags.fin" showname=".... .... ...0 = Fin: Not set" size="1" pos="47" show="0" value="0" unmaskedvalue="10"/>
      <field name="tcp.flags.str" showname="TCP Flags: \xc2\xb7\xc2\xb7\xc2\xb7\xc2\xb7\xc2\xb7\xc2\xb7\xc2\xb7A\xc2\xb7\xc2\xb7\xc2\xb7\xc2\xb7" size="2" pos="46" show="\xc2\xb7\xc2\xb7\xc2\xb7\xc2\xb7\xc2\xb7\xc2\xb7\xc2\xb7A\xc2\xb7\xc2\xb7\xc2\xb7\xc2\xb7" value="5010"/>
    </field>
    <field name="tcp.window_size_value" showname="Window size value: 16000" size="2" pos="48" show="16000" value="3e80"/>
    <field name="tcp.window_size" showname="Calculated window size: 16000" size="2" pos="48" show="16000" value="3e80"/>
    <field name="tcp.window_size_scalefactor" showname="Window size scaling factor: -1 (unknown)" size="2" pos="48" show="-1" value="3e80"/>
    <field name="tcp.checksum" showname="Checksum: 0x4e81 [unverified]" size="2" pos="50" show="0x00004e81" value="4e81"/>
    <field name="tcp.checksum.status" showname="Checksum Status: Unverified" size="0" pos="50" show="2"/>
    <field name="tcp.urgent_pointer" showname="Urgent pointer: 0" size="2" pos="52" show="0" value="0000"/>
    <field name="tcp.analysis" showname="SEQ/ACK analysis" size="0" pos="34" show="" value="">
      <field name="tcp.analysis.acks_frame" showname="This is an ACK to the segment in frame: 5" size="0" pos="34" show="5"/>
      <field name="tcp.analysis.ack_rtt" showname="The RTT to ACK the segment was: 0.004710000 seconds" size="0" pos="34" show="0.004710000"/>
      <field name="tcp.analysis.bytes_in_flight" showname="Bytes in flight: 28" size="0" pos="34" show="28"/>
      <field name="tcp.analysis.push_bytes_sent" showname="Bytes sent since last PSH flag: 78" size="0" pos="34" show="78"/>
    </field>
    <field name="" show="Timestamps" size="0" pos="34">
      <field name="tcp.time_relative" showname="Time since first frame in this TCP stream: 0.013020000 seconds" size="0" pos="34" show="0.013020000"/>
      <field name="tcp.time_delta" showname="Time since previous frame in this TCP stream: 0.004710000 seconds" size="0" pos="34" show="0.004710000"/>
    </field>
    <field name="tcp.payload" showname="TCP payload (28 bytes)" size="28" pos="54" show="65:00:04:00:01:00:00:00:00:00:00:00:00:00:00:00:00:00:00:00:00:00:00:00:01:00:00:00" value="65000400010000000000000000000000000000000000000001000000"/>
    <field name="tcp.pdu.size" showname="PDU Size: 28" size="28" pos="54" show="28" value="65000400010000000000000000000000000000000000000001000000"/>
  </proto>
  <proto name="enip" showname="EtherNet/IP (Industrial Protocol), Session: 0x00000001, Register Session" size="28" pos="54">
    <field name="" show="Encapsulation Header" size="24" pos="54" value="650004000100000000000000000000000000000000000000">
      <field name="enip.command" showname="Command: Register Session (0x0065)" size="2" pos="54" show="0x00000065" value="6500"/>
      <field name="enip.length" showname="Length: 4" size="2" pos="56" show="4" value="0400"/>
      <field name="enip.session" showname="Session Handle: 0x00000001" size="4" pos="58" show="0x00000001" value="01000000"/>
      <field name="enip.status" showname="Status: Success (0x00000000)" size="4" pos="62" show="0x00000000" value="00000000"/>
      <field name="enip.context" showname="Sender Context: 0000000000000000" size="8" pos="66" show="00:00:00:00:00:00:00:00" value="0000000000000000"/>
      <field name="enip.options" showname="Options: 0x00000000" size="4" pos="74" show="0x00000000" value="00000000"/>
    </field>
    <field name="" show="Command Specific Data" size="4" pos="78" value="01000000">
      <field name="enip.rs.version" showname="Protocol Version: 1" size="2" pos="78" show="1" value="0100"/>
      <field name="enip.rs.flags" showname="Option Flags: 0x0000" size="2" pos="80" show="0x00000000" value="0000"/>
    </field>
  </proto>
</packet>


<packet>
  <proto name="geninfo" pos="0" showname="General information" size="158">
    <field name="num" pos="0" show="7" showname="Number" value="7" size="158"/>
    <field name="len" pos="0" show="158" showname="Frame Length" value="9e" size="158"/>
    <field name="caplen" pos="0" show="158" showname="Captured Length" value="9e" size="158"/>
    <field name="timestamp" pos="0" show="Dec  3, 2003 23:35:03.987763000 CST" showname="Captured Time" value="1070465703.987763000" size="158"/>
  </proto>
  <proto name="frame" showname="Frame 7: 158 bytes on wire (1264 bits), 158 bytes captured (1264 bits)" size="158" pos="0">
    <field name="frame.encap_type" showname="Encapsulation type: Ethernet (1)" size="0" pos="0" show="1"/>
    <field name="frame.time" showname="Arrival Time: Dec  3, 2003 23:35:03.987763000 CST" size="0" pos="0" show="Dec  3, 2003 23:35:03.987763000 CST"/>
    <field name="frame.offset_shift" showname="Time shift for this packet: 0.000000000 seconds" size="0" pos="0" show="0.000000000"/>
    <field name="frame.time_epoch" showname="Epoch Time: 1070465703.987763000 seconds" size="0" pos="0" show="1070465703.987763000"/>
    <field name="frame.time_delta" showname="Time delta from previous captured frame: 0.002039000 seconds" size="0" pos="0" show="0.002039000"/>
    <field name="frame.time_delta_displayed" showname="Time delta from previous displayed frame: 0.002039000 seconds" size="0" pos="0" show="0.002039000"/>
    <field name="frame.time_relative" showname="Time since reference or first frame: 33.262290000 seconds" size="0" pos="0" show="33.262290000"/>
    <field name="frame.number" showname="Frame Number: 7" size="0" pos="0" show="7"/>
    <field name="frame.len" showname="Frame Length: 158 bytes (1264 bits)" size="0" pos="0" show="158"/>
    <field name="frame.cap_len" showname="Capture Length: 158 bytes (1264 bits)" size="0" pos="0" show="158"/>
    <field name="frame.marked" showname="Frame is marked: False" size="0" pos="0" show="0"/>
    <field name="frame.ignored" showname="Frame is ignored: False" size="0" pos="0" show="0"/>
    <field name="frame.protocols" showname="Protocols in frame: eth:ethertype:ip:tcp:enip:cip:cipcm" size="0" pos="0" show="eth:ethertype:ip:tcp:enip:cip:cipcm"/>
  </proto>
  <proto name="eth" showname="Ethernet II, Src: Rockwell_05:68:b8 (00:00:bc:05:68:b8), Dst: Rockwell_08:67:3e (00:00:bc:08:67:3e)" size="14" pos="0">
    <field name="eth.dst" showname="Destination: Rockwell_08:67:3e (00:00:bc:08:67:3e)" size="6" pos="0" show="00:00:bc:08:67:3e" value="0000bc08673e">
      <field name="eth.dst_resolved" showname="Destination (resolved): Rockwell_08:67:3e" hide="yes" size="6" pos="0" show="Rockwell_08:67:3e" value="0000bc08673e"/>
      <field name="eth.dst.oui" showname="Destination OUI: 00:00:bc (Rockwell Automation)" hide="yes" size="3" pos="0" show="188" value="0000bc"/>
      <field name="eth.dst.oui_resolved" showname="Destination OUI (resolved): Rockwell Automation" hide="yes" size="6" pos="0" show="Rockwell Automation" value="0000bc08673e"/>
      <field name="eth.addr" showname="Address: Rockwell_08:67:3e (00:00:bc:08:67:3e)" size="6" pos="0" show="00:00:bc:08:67:3e" value="0000bc08673e"/>
      <field name="eth.addr_resolved" showname="Address (resolved): Rockwell_08:67:3e" hide="yes" size="6" pos="0" show="Rockwell_08:67:3e" value="0000bc08673e"/>
      <field name="eth.addr.oui" showname="Address OUI: 00:00:bc (Rockwell Automation)" hide="yes" size="3" pos="0" show="188" value="0000bc"/>
      <field name="eth.addr.oui_resolved" showname="Address OUI (resolved): Rockwell Automation" hide="yes" size="6" pos="0" show="Rockwell Automation" value="0000bc08673e"/>
      <field name="eth.dst.lg" showname=".... ..0. .... .... .... .... = LG bit: Globally unique address (factory default)" size="3" pos="0" show="0" value="0" unmaskedvalue="0000bc"/>
      <field name="eth.lg" showname=".... ..0. .... .... .... .... = LG bit: Globally unique address (factory default)" hide="yes" size="3" pos="0" show="0" value="0" unmaskedvalue="0000bc"/>
      <field name="eth.dst.ig" showname=".... ...0 .... .... .... .... = IG bit: Individual address (unicast)" size="3" pos="0" show="0" value="0" unmaskedvalue="0000bc"/>
      <field name="eth.ig" showname=".... ...0 .... .... .... .... = IG bit: Individual address (unicast)" hide="yes" size="3" pos="0" show="0" value="0" unmaskedvalue="0000bc"/>
    </field>
    <field name="eth.src" showname="Source: Rockwell_05:68:b8 (00:00:bc:05:68:b8)" size="6" pos="6" show="00:00:bc:05:68:b8" value="0000bc0568b8">
      <field name="eth.src_resolved" showname="Source (resolved): Rockwell_05:68:b8" hide="yes" size="6" pos="6" show="Rockwell_05:68:b8" value="0000bc0568b8"/>
      <field name="eth.src.oui" showname="Source OUI: 00:00:bc (Rockwell Automation)" hide="yes" size="3" pos="6" show="188" value="0000bc"/>
      <field name="eth.src.oui_resolved" showname="Source OUI (resolved): Rockwell Automation" hide="yes" size="6" pos="6" show="Rockwell Automation" value="0000bc0568b8"/>
      <field name="eth.addr" showname="Address: Rockwell_05:68:b8 (00:00:bc:05:68:b8)" size="6" pos="6" show="00:00:bc:05:68:b8" value="0000bc0568b8"/>
      <field name="eth.addr_resolved" showname="Address (resolved): Rockwell_05:68:b8" hide="yes" size="6" pos="6" show="Rockwell_05:68:b8" value="0000bc0568b8"/>
      <field name="eth.addr.oui" showname="Address OUI: 00:00:bc (Rockwell Automation)" hide="yes" size="3" pos="6" show="188" value="0000bc"/>
      <field name="eth.addr.oui_resolved" showname="Address OUI (resolved): Rockwell Automation" hide="yes" size="6" pos="6" show="Rockwell Automation" value="0000bc0568b8"/>
      <field name="eth.src.lg" showname=".... ..0. .... .... .... .... = LG bit: Globally unique address (factory default)" size="3" pos="6" show="0" value="0" unmaskedvalue="0000bc"/>
      <field name="eth.lg" showname=".... ..0. .... .... .... .... = LG bit: Globally unique address (factory default)" hide="yes" size="3" pos="6" show="0" value="0" unmaskedvalue="0000bc"/>
      <field name="eth.src.ig" showname=".... ...0 .... .... .... .... = IG bit: Individual address (unicast)" size="3" pos="6" show="0" value="0" unmaskedvalue="0000bc"/>
      <field name="eth.ig" showname=".... ...0 .... .... .... .... = IG bit: Individual address (unicast)" hide="yes" size="3" pos="6" show="0" value="0" unmaskedvalue="0000bc"/>
    </field>
    <field name="eth.type" showname="Type: IPv4 (0x0800)" size="2" pos="12" show="0x00000800" value="0800"/>
    <field name="eth.fcs" showname="Frame check sequence: 0x941e5ca1 [unverified]" size="4" pos="154" show="0x941e5ca1" value="941e5ca1"/>
    <field name="eth.fcs.status" showname="FCS Status: Unverified" size="0" pos="154" show="2"/>
  </proto>
  <proto name="ip" showname="Internet Protocol Version 4, Src: 192.168.100.28, Dst: 192.168.100.36" size="20" pos="14">
    <field name="ip.version" showname="0100 .... = Version: 4" size="1" pos="14" show="4" value="4" unmaskedvalue="45"/>
    <field name="ip.hdr_len" showname=".... 0101 = Header Length: 20 bytes (5)" size="1" pos="14" show="20" value="45"/>
    <field name="ip.dsfield" showname="Differentiated Services Field: 0x00 (DSCP: CS0, ECN: Not-ECT)" size="1" pos="15" show="0x00000000" value="00">
      <field name="ip.dsfield.dscp" showname="0000 00.. = Differentiated Services Codepoint: Default (0)" size="1" pos="15" show="0" value="0" unmaskedvalue="00"/>
      <field name="ip.dsfield.ecn" showname=".... ..00 = Explicit Congestion Notification: Not ECN-Capable Transport (0)" size="1" pos="15" show="0" value="0" unmaskedvalue="00"/>
    </field>
    <field name="ip.len" showname="Total Length: 140" size="2" pos="16" show="140" value="008c"/>
    <field name="ip.id" showname="Identification: 0x60da (24794)" size="2" pos="18" show="0x000060da" value="60da"/>
    <field name="ip.flags" showname="Flags: 0x0000" size="2" pos="20" show="0x00000000" value="0000">
      <field name="ip.flags.rb" showname="0... .... .... .... = Reserved bit: Not set" size="2" pos="20" show="0" value="0" unmaskedvalue="0000"/>
      <field name="ip.flags.df" showname=".0.. .... .... .... = Don&#x27;t fragment: Not set" size="2" pos="20" show="0" value="0" unmaskedvalue="0000"/>
      <field name="ip.flags.mf" showname="..0. .... .... .... = More fragments: Not set" size="2" pos="20" show="0" value="0" unmaskedvalue="0000"/>
    </field>
    <field name="ip.frag_offset" showname="Fragment offset: 0" size="2" pos="20" show="0" value="0000"/>
    <field name="ip.ttl" showname="Time to live: 64" size="1" pos="22" show="64" value="40"/>
    <field name="ip.proto" showname="Protocol: TCP (6)" size="1" pos="23" show="6" value="06"/>
    <field name="ip.checksum" showname="Header checksum: 0xd000 [validation disabled]" size="2" pos="24" show="0x0000d000" value="d000"/>
    <field name="ip.checksum.status" showname="Header checksum status: Unverified" size="0" pos="24" show="2"/>
    <field name="ip.src" showname="Source: 192.168.100.28" size="4" pos="26" show="192.168.100.28" value="c0a8641c"/>
    <field name="ip.addr" showname="Source or Destination Address: 192.168.100.28" hide="yes" size="4" pos="26" show="192.168.100.28" value="c0a8641c"/>
    <field name="ip.src_host" showname="Source Host: 192.168.100.28" hide="yes" size="4" pos="26" show="192.168.100.28" value="c0a8641c"/>
    <field name="ip.host" showname="Source or Destination Host: 192.168.100.28" hide="yes" size="4" pos="26" show="192.168.100.28" value="c0a8641c"/>
    <field name="ip.dst" showname="Destination: 192.168.100.36" size="4" pos="30" show="192.168.100.36" value="c0a86424"/>
    <field name="ip.addr" showname="Source or Destination Address: 192.168.100.36" hide="yes" size="4" pos="30" show="192.168.100.36" value="c0a86424"/>
    <field name="ip.dst_host" showname="Destination Host: 192.168.100.36" hide="yes" size="4" pos="30" show="192.168.100.36" value="c0a86424"/>
    <field name="ip.host" showname="Source or Destination Host: 192.168.100.36" hide="yes" size="4" pos="30" show="192.168.100.36" value="c0a86424"/>
  </proto>
  <proto name="tcp" showname="Transmission Control Protocol, Src Port: 4497, Dst Port: 44818, Seq: 53, Ack: 79, Len: 100" size="20" pos="34">
    <field name="tcp.srcport" showname="Source Port: 4497" size="2" pos="34" show="4497" value="1191"/>
    <field name="tcp.dstport" showname="Destination Port: 44818" size="2" pos="36" show="44818" value="af12"/>
    <field name="tcp.port" showname="Source or Destination Port: 4497" hide="yes" size="2" pos="34" show="4497" value="1191"/>
    <field name="tcp.port" showname="Source or Destination Port: 44818" hide="yes" size="2" pos="36" show="44818" value="af12"/>
    <field name="tcp.stream" showname="Stream index: 2" size="0" pos="34" show="2"/>
    <field name="tcp.len" showname="TCP Segment Len: 100" size="1" pos="46" show="100" value="50"/>
    <field name="tcp.seq" showname="Sequence number: 53    (relative sequence number)" size="4" pos="38" show="53" value="53e84ff2"/>
    <field name="tcp.seq_raw" showname="Sequence number (raw): 1407733746" size="4" pos="38" show="1407733746" value="53e84ff2"/>
    <field name="tcp.nxtseq" showname="Next sequence number: 153    (relative sequence number)" size="0" pos="34" show="153"/>
    <field name="tcp.ack" showname="Acknowledgment number: 79    (relative ack number)" size="4" pos="42" show="79" value="81998829"/>
    <field name="tcp.ack_raw" showname="Acknowledgment number (raw): 2174322729" size="4" pos="42" show="2174322729" value="81998829"/>
    <field name="tcp.hdr_len" showname="0101 .... = Header Length: 20 bytes (5)" size="1" pos="46" show="20" value="50"/>
    <field name="tcp.flags" showname="Flags: 0x018 (PSH, ACK)" size="2" pos="46" show="0x00000018" value="18" unmaskedvalue="5018">
      <field name="tcp.flags.res" showname="000. .... .... = Reserved: Not set" size="1" pos="46" show="0" value="0" unmaskedvalue="50"/>
      <field name="tcp.flags.ns" showname="...0 .... .... = Nonce: Not set" size="1" pos="46" show="0" value="0" unmaskedvalue="50"/>
      <field name="tcp.flags.cwr" showname=".... 0... .... = Congestion Window Reduced (CWR): Not set" size="1" pos="47" show="0" value="0" unmaskedvalue="18"/>
      <field name="tcp.flags.ecn" showname=".... .0.. .... = ECN-Echo: Not set" size="1" pos="47" show="0" value="0" unmaskedvalue="18"/>
      <field name="tcp.flags.urg" showname=".... ..0. .... = Urgent: Not set" size="1" pos="47" show="0" value="0" unmaskedvalue="18"/>
      <field name="tcp.flags.ack" showname=".... ...1 .... = Acknowledgment: Set" size="1" pos="47" show="1" value="1" unmaskedvalue="18"/>
      <field name="tcp.flags.push" showname=".... .... 1... = Push: Set" size="1" pos="47" show="1" value="1" unmaskedvalue="18"/>
      <field name="tcp.flags.reset" showname=".... .... .0.. = Reset: Not set" size="1" pos="47" show="0" value="0" unmaskedvalue="18"/>
      <field name="tcp.flags.syn" showname=".... .... ..0. = Syn: Not set" size="1" pos="47" show="0" value="0" unmaskedvalue="18"/>
      <field name="tcp.flags.fin" showname=".... .... ...0 = Fin: Not set" size="1" pos="47" show="0" value="0" unmaskedvalue="18"/>
      <field name="tcp.flags.str" showname="TCP Flags: \xc2\xb7\xc2\xb7\xc2\xb7\xc2\xb7\xc2\xb7\xc2\xb7\xc2\xb7AP\xc2\xb7\xc2\xb7\xc2\xb7" size="2" pos="46" show="\xc2\xb7\xc2\xb7\xc2\xb7\xc2\xb7\xc2\xb7\xc2\xb7\xc2\xb7AP\xc2\xb7\xc2\xb7\xc2\xb7" value="5018"/>
    </field>
    <field name="tcp.window_size_value" showname="Window size value: 16384" size="2" pos="48" show="16384" value="4000"/>
    <field name="tcp.window_size" showname="Calculated window size: 16384" size="2" pos="48" show="16384" value="4000"/>
    <field name="tcp.window_size_scalefactor" showname="Window size scaling factor: -1 (unknown)" size="2" pos="48" show="-1" value="4000"/>
    <field name="tcp.checksum" showname="Checksum: 0x9404 [unverified]" size="2" pos="50" show="0x00009404" value="9404"/>
    <field name="tcp.checksum.status" showname="Checksum Status: Unverified" size="0" pos="50" show="2"/>
    <field name="tcp.urgent_pointer" showname="Urgent pointer: 0" size="2" pos="52" show="0" value="0000"/>
    <field name="tcp.analysis" showname="SEQ/ACK analysis" size="0" pos="34" show="" value="">
      <field name="tcp.analysis.acks_frame" showname="This is an ACK to the segment in frame: 6" size="0" pos="34" show="6"/>
      <field name="tcp.analysis.ack_rtt" showname="The RTT to ACK the segment was: 0.002039000 seconds" size="0" pos="34" show="0.002039000"/>
      <field name="tcp.analysis.bytes_in_flight" showname="Bytes in flight: 100" size="0" pos="34" show="100"/>
      <field name="tcp.analysis.push_bytes_sent" showname="Bytes sent since last PSH flag: 100" size="0" pos="34" show="100"/>
    </field>
    <field name="" show="Timestamps" size="0" pos="34">
      <field name="tcp.time_relative" showname="Time since first frame in this TCP stream: 0.015059000 seconds" size="0" pos="34" show="0.015059000"/>
      <field name="tcp.time_delta" showname="Time since previous frame in this TCP stream: 0.002039000 seconds" size="0" pos="34" show="0.002039000"/>
    </field>
    <field name="tcp.payload" showname="TCP payload (100 bytes)" size="100" pos="54" show="6f:00:4c:00:01:00:00:00:00:00:00:00:c0:a8:64:1c:00:00:48:57:00:00:00:00:00:00:00:00:00:00:02:00:00:00:00:00:b2:00:3c:00:54:02:20:06:24:01:05:9b:00:00:00:00:00:00:00:00:0e:00:01:00:22:f5:13:00:02:00:00:00:10:27:00:00:1a:48:10:27:00:00:1a:28:01:09:34:04:00:00:00:00:00:00:00:00:20:04:24:06:2c:02:2c:01" value="6f004c000100000000000000c0a8641c0000485700000000000000000000020000000000b2003c00540220062401059b00000000000000000e00010022f5130002000000102700001a48102700001a28010934040000000000000000200424062c022c01"/>
    <field name="tcp.pdu.size" showname="PDU Size: 100" size="100" pos="54" show="100" value="6f004c000100000000000000c0a8641c0000485700000000000000000000020000000000b2003c00540220062401059b00000000000000000e00010022f5130002000000102700001a48102700001a28010934040000000000000000200424062c022c01"/>
  </proto>
  <proto name="enip" showname="EtherNet/IP (Industrial Protocol), Session: 0x00000001, Send RR Data" size="100" pos="54">
    <field name="" show="Encapsulation Header" size="24" pos="54" value="6f004c000100000000000000c0a8641c0000485700000000">
      <field name="enip.command" showname="Command: Send RR Data (0x006f)" size="2" pos="54" show="0x0000006f" value="6f00"/>
      <field name="enip.length" showname="Length: 76" size="2" pos="56" show="76" value="4c00"/>
      <field name="enip.session" showname="Session Handle: 0x00000001" size="4" pos="58" show="0x00000001" value="01000000"/>
      <field name="enip.status" showname="Status: Success (0x00000000)" size="4" pos="62" show="0x00000000" value="00000000"/>
      <field name="enip.context" showname="Sender Context: c0a8641c00004857" size="8" pos="66" show="c0:a8:64:1c:00:00:48:57" value="c0a8641c00004857"/>
      <field name="enip.options" showname="Options: 0x00000000" size="4" pos="74" show="0x00000000" value="00000000"/>
    </field>
    <field name="" show="Command Specific Data" size="76" pos="78" value="000000000000020000000000b2003c00540220062401059b00000000000000000e00010022f5130002000000102700001a48102700001a28010934040000000000000000200424062c022c01">
      <field name="enip.srrd.iface" showname="Interface Handle: CIP (0x00000000)" size="4" pos="78" show="0x00000000" value="00000000"/>
      <field name="enip.timeout" showname="Timeout: 0" size="2" pos="82" show="0" value="0000"/>
      <field name="enip.cpf.itemcount" showname="Item Count: 2" size="2" pos="84" show="2" value="0200">
        <field name="enip.cpf.typeid" showname="Type ID: Null Address Item (0x0000)" size="2" pos="86" show="0x00000000" value="0000">
          <field name="enip.cpf.length" showname="Length: 0" size="2" pos="88" show="0" value="0000"/>
        </field>
        <field name="enip.cpf.typeid" showname="Type ID: Unconnected Data Item (0x00b2)" size="2" pos="90" show="0x000000b2" value="b200">
          <field name="enip.cpf.length" showname="Length: 60" size="2" pos="92" show="60" value="3c00"/>
        </field>
      </field>
    </field>
  </proto>
  <proto name="cip" showname="Common Industrial Protocol" size="60" pos="94">
    <field name="cip.service" showname="Service: Unknown Service (0x54) (Request)" size="1" pos="94" show="0x00000054" value="54">
      <field name="cip.rr" showname="0... .... = Request/Response: Request (0x0)" size="1" pos="94" show="0x00000000" value="0" unmaskedvalue="54"/>
      <field name="cip.sc" showname=".101 0100 = Service: Unknown (0x54)" size="1" pos="94" show="0x00000054" value="54" unmaskedvalue="54"/>
    </field>
    <field name="cip.request_path_size" showname="Request Path Size: 2 words" size="1" pos="95" show="2" value="02"/>
    <field name="" show="Request Path: Connection Manager, Instance: 0x01" size="4" pos="96" value="20062401">
      <field name="cip.epath" showname="EPath: 20062401" hide="yes" size="4" pos="96" show="20:06:24:01" value="20062401"/>
      <field name="cip.path_segment" showname="Path Segment: 0x20 (8-Bit Class Segment)" size="2" pos="96" show="0x00000020" value="2006">
        <field name="cip.path_segment.type" showname="001. .... = Path Segment Type: Logical Segment (1)" size="1" pos="96" show="1" value="1" unmaskedvalue="20"/>
        <field name="cip.logical_segment.type" showname="...0 00.. = Logical Segment Type: Class ID (0)" size="1" pos="96" show="0" value="0" unmaskedvalue="20"/>
        <field name="cip.logical_segment.format" showname=".... ..00 = Logical Segment Format: 8-bit Logical Segment (0)" size="1" pos="96" show="0" value="0" unmaskedvalue="20"/>
        <field name="cip.class" showname="Class: Connection Manager (0x06)" size="1" pos="97" show="6" value="06"/>
      </field>
      <field name="cip.path_segment" showname="Path Segment: 0x24 (8-Bit Instance Segment)" size="2" pos="98" show="0x00000024" value="2401">
        <field name="cip.path_segment.type" showname="001. .... = Path Segment Type: Logical Segment (1)" size="1" pos="98" show="1" value="1" unmaskedvalue="24"/>
        <field name="cip.logical_segment.type" showname="...0 01.. = Logical Segment Type: Instance ID (1)" size="1" pos="98" show="1" value="1" unmaskedvalue="24"/>
        <field name="cip.logical_segment.format" showname=".... ..00 = Logical Segment Format: 8-bit Logical Segment (0)" size="1" pos="98" show="0" value="0" unmaskedvalue="24"/>
        <field name="cip.instance" showname="Instance: 0x01" size="1" pos="99" show="0x00000001" value="01"/>
      </field>
    </field>
  </proto>
  <proto name="cipcm" showname="CIP Connection Manager" size="60" pos="94">
    <field name="" show="Service: Forward Open (Request)" size="1" pos="94" value="54">
      <field name="cip.rr" showname="0... .... = Request/Response: Request (0x0)" size="1" pos="94" show="0x00000000" value="0" unmaskedvalue="54"/>
      <field name="cip.cm.sc" showname=".101 0100 = Service: Forward Open (0x54)" size="1" pos="94" show="0x00000054" value="54" unmaskedvalue="54"/>
    </field>
    <field name="" show="Command Specific Data" size="54" pos="100" value="059b00000000000000000e00010022f5130002000000102700001a48102700001a28010934040000000000000000200424062c022c01">
      <field name="cip.cm.priority" showname="...0 .... = Priority: 0" size="1" pos="100" show="0" value="0" unmaskedvalue="05"/>
      <field name="cip.cm.tick_time" showname=".... 0101 = Tick time: 5" size="1" pos="100" show="5" value="5" unmaskedvalue="05"/>
      <field name="cip.cm.timeout_tick" showname="Time-out ticks: 155" size="1" pos="101" show="155" value="9b"/>
      <field name="cip.cm.timeout" showname="Actual Time Out: 4960ms" size="2" pos="100" show="4960" value="059b"/>
      <field name="cip.cm.ot_connid" showname="O-&gt;T Network Connection ID: 0x00000000" size="4" pos="102" show="0x00000000" value="00000000"/>
      <field name="cip.cm.to_connid" showname="T-&gt;O Network Connection ID: 0x00000000" size="4" pos="106" show="0x00000000" value="00000000"/>
      <field name="cip.cm.conn_serial_num" showname="Connection Serial Number: 0x000e" size="2" pos="110" show="0x0000000e" value="0e00"/>
      <field name="cip.cm.vendor" showname="Originator Vendor ID: Rockwell Automation/Allen-Bradley (0x0001)" size="2" pos="112" show="1" value="0100"/>
      <field name="cip.cm.orig_serial_num" showname="Originator Serial Number: 0x0013f522" size="4" pos="114" show="0x0013f522" value="22f51300"/>
      <field name="cip.cm.timeout_multiplier" showname="Connection Timeout Multiplier: *16 (2)" size="1" pos="118" show="2" value="02"/>
      <field name="cip.reserved" showname="Reserved: 0x000000" size="3" pos="119" show="0x00000000" value="000000"/>
      <field name="cip.cm.otrpi" showname="O-&gt;T RPI: 10.000ms" size="4" pos="122" show="10000" value="10270000"/>
      <field name="cip.cm.ot_net_params" showname="O-&gt;T Network Connection Parameters: 0x481a" size="2" pos="126" show="0x0000481a" value="1a48">
        <field name="cip.cm.fwo.owner" showname="0... .... .... .... = Owner: Exclusive (0)" size="2" pos="126" show="0" value="0" unmaskedvalue="1a48"/>
        <field name="cip.cm.fwo.type" showname=".10. .... .... .... = Connection Type: Point to Point (2)" size="2" pos="126" show="2" value="2" unmaskedvalue="1a48"/>
        <field name="cip.cm.fwo.prio" showname=".... 10.. .... .... = Priority: Scheduled (2)" size="2" pos="126" show="2" value="2" unmaskedvalue="1a48"/>
        <field name="cip.cm.fwo.f_v" showname=".... ..0. .... .... = Connection Size Type: Fixed (0)" size="2" pos="126" show="0" value="0" unmaskedvalue="1a48"/>
        <field name="cip.cm.fwo.consize" showname=".... ...0 0001 1010 = Connection Size: 26 bytes" size="2" pos="126" show="26" value="1A" unmaskedvalue="1a48"/>
      </field>
      <field name="cip.cm.torpi" showname="T-&gt;O RPI: 10.000ms" size="4" pos="128" show="10000" value="10270000"/>
      <field name="cip.cm.to_net_params" showname="T-&gt;O Network Connection Parameters: 0x281a" size="2" pos="132" show="0x0000281a" value="1a28">
        <field name="cip.cm.fwo.owner" showname="0... .... .... .... = Owner: Exclusive (0)" size="2" pos="132" show="0" value="0" unmaskedvalue="1a28"/>
        <field name="cip.cm.fwo.type" showname=".01. .... .... .... = Connection Type: Multicast (1)" size="2" pos="132" show="1" value="1" unmaskedvalue="1a28"/>
        <field name="cip.cm.fwo.prio" showname=".... 10.. .... .... = Priority: Scheduled (2)" size="2" pos="132" show="2" value="2" unmaskedvalue="1a28"/>
        <field name="cip.cm.fwo.f_v" showname=".... ..0. .... .... = Connection Size Type: Fixed (0)" size="2" pos="132" show="0" value="0" unmaskedvalue="1a28"/>
        <field name="cip.cm.fwo.consize" showname=".... ...0 0001 1010 = Connection Size: 26 bytes" size="2" pos="132" show="26" value="1A" unmaskedvalue="1a28"/>
      </field>
      <field name="cip.cm.transport_type_trigger" showname="Transport Type/Trigger: 0x01, Direction: Client, Trigger: Cyclic, Class: 1" size="1" pos="134" show="0x00000001" value="01">
        <field name="cip.cm.fwo.dir" showname="0... .... = Direction: Client (0)" size="1" pos="134" show="0" value="0" unmaskedvalue="01"/>
        <field name="cip.cm.fwo.trigger" showname=".000 .... = Trigger: Cyclic (0)" size="1" pos="134" show="0" value="0" unmaskedvalue="01"/>
        <field name="cip.cm.fwo.transport" showname=".... 0001 = Class: 1 (1)" size="1" pos="134" show="1" value="1" unmaskedvalue="01"/>
      </field>
      <field name="cip.cm.connpath_size" showname="Connection Path Size: 9 words" size="1" pos="135" show="9" value="09"/>
      <field name="" show="Connection Path: [Key], Assembly, Instance: 0x06, Connection Point: 0x02, Connection Point: 0x01" size="18" pos="136" value="34040000000000000000200424062c022c01">
        <field name="cip.epath" showname="EPath: 34040000000000000000200424062c022c01" hide="yes" size="18" pos="136" show="34:04:00:00:00:00:00:00:00:00:20:04:24:06:2c:02:2c:01" value="34040000000000000000200424062c022c01"/>
        <field name="cip.path_segment" showname="Path Segment: 0x34 (Electronic Key Segment) (VendorID: 0x0000, DevTyp: 0x0000, 0.0)" size="10" pos="136" show="0x00000034" value="34040000000000000000">
          <field name="cip.path_segment.type" showname="001. .... = Path Segment Type: Logical Segment (1)" size="1" pos="136" show="1" value="1" unmaskedvalue="34"/>
          <field name="cip.logical_segment.type" showname="...1 01.. = Logical Segment Type: Special (5)" size="1" pos="136" show="5" value="5" unmaskedvalue="34"/>
          <field name="cip.ekey.format" showname="Key Format: 0x04" size="1" pos="137" show="0x00000004" value="04"/>
          <field name="cip.ekey.vendor" showname="Vendor ID: Reserved (0x0000)" size="2" pos="138" show="0" value="0000"/>
          <field name="cip.ekey.devtype" showname="Device Type: Generic Device (deprecated) (0x0000)" size="2" pos="140" show="0" value="0000"/>
          <field name="cip.ekey.product_code" showname="Product Code: 0x0000" size="2" pos="142" show="0x00000000" value="0000"/>
          <field name="cip.ekey.compatibility" showname="Compatibility: Bit Cleared, Major Revision: 0" size="1" pos="144" show="0x00000000" value="00">
            <field name="cip.ekey.comp_bit" showname="0... .... = Compatibility: Bit Cleared (0x0)" size="1" pos="144" show="0x00000000" value="0" unmaskedvalue="00"/>
            <field name="cip.ekey.major_rev" showname=".000 0000 = Major Revision: 0" size="1" pos="144" show="0" value="0" unmaskedvalue="00"/>
          </field>
          <field name="cip.ekey.minor_rev" showname="Minor Revision: 0" size="1" pos="145" show="0" value="00"/>
        </field>
        <field name="cip.path_segment" showname="Path Segment: 0x20 (8-Bit Class Segment)" size="2" pos="146" show="0x00000020" value="2004">
          <field name="cip.path_segment.type" showname="001. .... = Path Segment Type: Logical Segment (1)" size="1" pos="146" show="1" value="1" unmaskedvalue="20"/>
          <field name="cip.logical_segment.type" showname="...0 00.. = Logical Segment Type: Class ID (0)" size="1" pos="146" show="0" value="0" unmaskedvalue="20"/>
          <field name="cip.logical_segment.format" showname=".... ..00 = Logical Segment Format: 8-bit Logical Segment (0)" size="1" pos="146" show="0" value="0" unmaskedvalue="20"/>
          <field name="cip.class" showname="Class: Assembly (0x04)" size="1" pos="147" show="4" value="04"/>
        </field>
        <field name="cip.path_segment" showname="Path Segment: 0x24 (8-Bit Instance Segment)" size="2" pos="148" show="0x00000024" value="2406">
          <field name="cip.path_segment.type" showname="001. .... = Path Segment Type: Logical Segment (1)" size="1" pos="148" show="1" value="1" unmaskedvalue="24"/>
          <field name="cip.logical_segment.type" showname="...0 01.. = Logical Segment Type: Instance ID (1)" size="1" pos="148" show="1" value="1" unmaskedvalue="24"/>
          <field name="cip.logical_segment.format" showname=".... ..00 = Logical Segment Format: 8-bit Logical Segment (0)" size="1" pos="148" show="0" value="0" unmaskedvalue="24"/>
          <field name="cip.instance" showname="Instance: 0x06" size="1" pos="149" show="0x00000006" value="06"/>
        </field>
        <field name="cip.path_segment" showname="Path Segment: 0x2c (8-Bit Connection Point Segment)" size="2" pos="150" show="0x0000002c" value="2c02">
          <field name="cip.path_segment.type" showname="001. .... = Path Segment Type: Logical Segment (1)" size="1" pos="150" show="1" value="1" unmaskedvalue="2c"/>
          <field name="cip.logical_segment.type" showname="...0 11.. = Logical Segment Type: Connection Point (3)" size="1" pos="150" show="3" value="3" unmaskedvalue="2c"/>
          <field name="cip.logical_segment.format" showname=".... ..00 = Logical Segment Format: 8-bit Logical Segment (0)" size="1" pos="150" show="0" value="0" unmaskedvalue="2c"/>
          <field name="cip.connpoint" showname="Connection Point: 0x02" size="1" pos="151" show="0x00000002" value="02"/>
        </field>
        <field name="cip.path_segment" showname="Path Segment: 0x2c (8-Bit Connection Point Segment)" size="2" pos="152" show="0x0000002c" value="2c01">
          <field name="cip.path_segment.type" showname="001. .... = Path Segment Type: Logical Segment (1)" size="1" pos="152" show="1" value="1" unmaskedvalue="2c"/>
          <field name="cip.logical_segment.type" showname="...0 11.. = Logical Segment Type: Connection Point (3)" size="1" pos="152" show="3" value="3" unmaskedvalue="2c"/>
          <field name="cip.logical_segment.format" showname=".... ..00 = Logical Segment Format: 8-bit Logical Segment (0)" size="1" pos="152" show="0" value="0" unmaskedvalue="2c"/>
          <field name="cip.connpoint" showname="Connection Point: 0x01" size="1" pos="153" show="0x00000001" value="01"/>
        </field>
      </field>
    </field>
  </proto>
</packet>


<packet>
  <proto name="geninfo" pos="0" showname="General information" size="168">
    <field name="num" pos="0" show="8" showname="Number" value="8" size="168"/>
    <field name="len" pos="0" show="168" showname="Frame Length" value="a8" size="168"/>
    <field name="caplen" pos="0" show="168" showname="Captured Length" value="a8" size="168"/>
    <field name="timestamp" pos="0" show="Dec  3, 2003 23:35:03.997124000 CST" showname="Captured Time" value="1070465703.997124000" size="168"/>
  </proto>
  <proto name="frame" showname="Frame 8: 168 bytes on wire (1344 bits), 168 bytes captured (1344 bits)" size="168" pos="0">
    <field name="frame.encap_type" showname="Encapsulation type: Ethernet (1)" size="0" pos="0" show="1"/>
    <field name="frame.time" showname="Arrival Time: Dec  3, 2003 23:35:03.997124000 CST" size="0" pos="0" show="Dec  3, 2003 23:35:03.997124000 CST"/>
    <field name="frame.offset_shift" showname="Time shift for this packet: 0.000000000 seconds" size="0" pos="0" show="0.000000000"/>
    <field name="frame.time_epoch" showname="Epoch Time: 1070465703.997124000 seconds" size="0" pos="0" show="1070465703.997124000"/>
    <field name="frame.time_delta" showname="Time delta from previous captured frame: 0.009361000 seconds" size="0" pos="0" show="0.009361000"/>
    <field name="frame.time_delta_displayed" showname="Time delta from previous displayed frame: 0.009361000 seconds" size="0" pos="0" show="0.009361000"/>
    <field name="frame.time_relative" showname="Time since reference or first frame: 33.271651000 seconds" size="0" pos="0" show="33.271651000"/>
    <field name="frame.number" showname="Frame Number: 8" size="0" pos="0" show="8"/>
    <field name="frame.len" showname="Frame Length: 168 bytes (1344 bits)" size="0" pos="0" show="168"/>
    <field name="frame.cap_len" showname="Capture Length: 168 bytes (1344 bits)" size="0" pos="0" show="168"/>
    <field name="frame.marked" showname="Frame is marked: False" size="0" pos="0" show="0"/>
    <field name="frame.ignored" showname="Frame is ignored: False" size="0" pos="0" show="0"/>
    <field name="frame.protocols" showname="Protocols in frame: eth:ethertype:ip:tcp:enip:cip:cipcm" size="0" pos="0" show="eth:ethertype:ip:tcp:enip:cip:cipcm"/>
  </proto>
  <proto name="eth" showname="Ethernet II, Src: Rockwell_08:67:3e (00:00:bc:08:67:3e), Dst: Rockwell_05:68:b8 (00:00:bc:05:68:b8)" size="14" pos="0">
    <field name="eth.dst" showname="Destination: Rockwell_05:68:b8 (00:00:bc:05:68:b8)" size="6" pos="0" show="00:00:bc:05:68:b8" value="0000bc0568b8">
      <field name="eth.dst_resolved" showname="Destination (resolved): Rockwell_05:68:b8" hide="yes" size="6" pos="0" show="Rockwell_05:68:b8" value="0000bc0568b8"/>
      <field name="eth.dst.oui" showname="Destination OUI: 00:00:bc (Rockwell Automation)" hide="yes" size="3" pos="0" show="188" value="0000bc"/>
      <field name="eth.dst.oui_resolved" showname="Destination OUI (resolved): Rockwell Automation" hide="yes" size="6" pos="0" show="Rockwell Automation" value="0000bc0568b8"/>
      <field name="eth.addr" showname="Address: Rockwell_05:68:b8 (00:00:bc:05:68:b8)" size="6" pos="0" show="00:00:bc:05:68:b8" value="0000bc0568b8"/>
      <field name="eth.addr_resolved" showname="Address (resolved): Rockwell_05:68:b8" hide="yes" size="6" pos="0" show="Rockwell_05:68:b8" value="0000bc0568b8"/>
      <field name="eth.addr.oui" showname="Address OUI: 00:00:bc (Rockwell Automation)" hide="yes" size="3" pos="0" show="188" value="0000bc"/>
      <field name="eth.addr.oui_resolved" showname="Address OUI (resolved): Rockwell Automation" hide="yes" size="6" pos="0" show="Rockwell Automation" value="0000bc0568b8"/>
      <field name="eth.dst.lg" showname=".... ..0. .... .... .... .... = LG bit: Globally unique address (factory default)" size="3" pos="0" show="0" value="0" unmaskedvalue="0000bc"/>
      <field name="eth.lg" showname=".... ..0. .... .... .... .... = LG bit: Globally unique address (factory default)" hide="yes" size="3" pos="0" show="0" value="0" unmaskedvalue="0000bc"/>
      <field name="eth.dst.ig" showname=".... ...0 .... .... .... .... = IG bit: Individual address (unicast)" size="3" pos="0" show="0" value="0" unmaskedvalue="0000bc"/>
      <field name="eth.ig" showname=".... ...0 .... .... .... .... = IG bit: Individual address (unicast)" hide="yes" size="3" pos="0" show="0" value="0" unmaskedvalue="0000bc"/>
    </field>
    <field name="eth.src" showname="Source: Rockwell_08:67:3e (00:00:bc:08:67:3e)" size="6" pos="6" show="00:00:bc:08:67:3e" value="0000bc08673e">
      <field name="eth.src_resolved" showname="Source (resolved): Rockwell_08:67:3e" hide="yes" size="6" pos="6" show="Rockwell_08:67:3e" value="0000bc08673e"/>
      <field name="eth.src.oui" showname="Source OUI: 00:00:bc (Rockwell Automation)" hide="yes" size="3" pos="6" show="188" value="0000bc"/>
      <field name="eth.src.oui_resolved" showname="Source OUI (resolved): Rockwell Automation" hide="yes" size="6" pos="6" show="Rockwell Automation" value="0000bc08673e"/>
      <field name="eth.addr" showname="Address: Rockwell_08:67:3e (00:00:bc:08:67:3e)" size="6" pos="6" show="00:00:bc:08:67:3e" value="0000bc08673e"/>
      <field name="eth.addr_resolved" showname="Address (resolved): Rockwell_08:67:3e" hide="yes" size="6" pos="6" show="Rockwell_08:67:3e" value="0000bc08673e"/>
      <field name="eth.addr.oui" showname="Address OUI: 00:00:bc (Rockwell Automation)" hide="yes" size="3" pos="6" show="188" value="0000bc"/>
      <field name="eth.addr.oui_resolved" showname="Address OUI (resolved): Rockwell Automation" hide="yes" size="6" pos="6" show="Rockwell Automation" value="0000bc08673e"/>
      <field name="eth.src.lg" showname=".... ..0. .... .... .... .... = LG bit: Globally unique address (factory default)" size="3" pos="6" show="0" value="0" unmaskedvalue="0000bc"/>
      <field name="eth.lg" showname=".... ..0. .... .... .... .... = LG bit: Globally unique address (factory default)" hide="yes" size="3" pos="6" show="0" value="0" unmaskedvalue="0000bc"/>
      <field name="eth.src.ig" showname=".... ...0 .... .... .... .... = IG bit: Individual address (unicast)" size="3" pos="6" show="0" value="0" unmaskedvalue="0000bc"/>
      <field name="eth.ig" showname=".... ...0 .... .... .... .... = IG bit: Individual address (unicast)" hide="yes" size="3" pos="6" show="0" value="0" unmaskedvalue="0000bc"/>
    </field>
    <field name="eth.type" showname="Type: IPv4 (0x0800)" size="2" pos="12" show="0x00000800" value="0800"/>
    <field name="eth.fcs" showname="Frame check sequence: 0x82a3f82e [unverified]" size="4" pos="164" show="0x82a3f82e" value="82a3f82e"/>
    <field name="eth.fcs.status" showname="FCS Status: Unverified" size="0" pos="164" show="2"/>
  </proto>
  <proto name="ip" showname="Internet Protocol Version 4, Src: 192.168.100.36, Dst: 192.168.100.28" size="20" pos="14">
    <field name="ip.version" showname="0100 .... = Version: 4" size="1" pos="14" show="4" value="4" unmaskedvalue="45"/>
    <field name="ip.hdr_len" showname=".... 0101 = Header Length: 20 bytes (5)" size="1" pos="14" show="20" value="45"/>
    <field name="ip.dsfield" showname="Differentiated Services Field: 0x00 (DSCP: CS0, ECN: Not-ECT)" size="1" pos="15" show="0x00000000" value="00">
      <field name="ip.dsfield.dscp" showname="0000 00.. = Differentiated Services Codepoint: Default (0)" size="1" pos="15" show="0" value="0" unmaskedvalue="00"/>
      <field name="ip.dsfield.ecn" showname=".... ..00 = Explicit Congestion Notification: Not ECN-Capable Transport (0)" size="1" pos="15" show="0" value="0" unmaskedvalue="00"/>
    </field>
    <field name="ip.len" showname="Total Length: 150" size="2" pos="16" show="150" value="0096"/>
    <field name="ip.id" showname="Identification: 0x0024 (36)" size="2" pos="18" show="0x00000024" value="0024"/>
    <field name="ip.flags" showname="Flags: 0x0000" size="2" pos="20" show="0x00000000" value="0000">
      <field name="ip.flags.rb" showname="0... .... .... .... = Reserved bit: Not set" size="2" pos="20" show="0" value="0" unmaskedvalue="0000"/>
      <field name="ip.flags.df" showname=".0.. .... .... .... = Don&#x27;t fragment: Not set" size="2" pos="20" show="0" value="0" unmaskedvalue="0000"/>
      <field name="ip.flags.mf" showname="..0. .... .... .... = More fragments: Not set" size="2" pos="20" show="0" value="0" unmaskedvalue="0000"/>
    </field>
    <field name="ip.frag_offset" showname="Fragment offset: 0" size="2" pos="20" show="0" value="0000"/>
    <field name="ip.ttl" showname="Time to live: 64" size="1" pos="22" show="64" value="40"/>
    <field name="ip.proto" showname="Protocol: TCP (6)" size="1" pos="23" show="6" value="06"/>
    <field name="ip.checksum" showname="Header checksum: 0x30ad [validation disabled]" size="2" pos="24" show="0x000030ad" value="30ad"/>
    <field name="ip.checksum.status" showname="Header checksum status: Unverified" size="0" pos="24" show="2"/>
    <field name="ip.src" showname="Source: 192.168.100.36" size="4" pos="26" show="192.168.100.36" value="c0a86424"/>
    <field name="ip.addr" showname="Source or Destination Address: 192.168.100.36" hide="yes" size="4" pos="26" show="192.168.100.36" value="c0a86424"/>
    <field name="ip.src_host" showname="Source Host: 192.168.100.36" hide="yes" size="4" pos="26" show="192.168.100.36" value="c0a86424"/>
    <field name="ip.host" showname="Source or Destination Host: 192.168.100.36" hide="yes" size="4" pos="26" show="192.168.100.36" value="c0a86424"/>
    <field name="ip.dst" showname="Destination: 192.168.100.28" size="4" pos="30" show="192.168.100.28" value="c0a8641c"/>
    <field name="ip.addr" showname="Source or Destination Address: 192.168.100.28" hide="yes" size="4" pos="30" show="192.168.100.28" value="c0a8641c"/>
    <field name="ip.dst_host" showname="Destination Host: 192.168.100.28" hide="yes" size="4" pos="30" show="192.168.100.28" value="c0a8641c"/>
    <field name="ip.host" showname="Source or Destination Host: 192.168.100.28" hide="yes" size="4" pos="30" show="192.168.100.28" value="c0a8641c"/>
  </proto>
  <proto name="tcp" showname="Transmission Control Protocol, Src Port: 44818, Dst Port: 4497, Seq: 79, Ack: 153, Len: 110" size="20" pos="34">
    <field name="tcp.srcport" showname="Source Port: 44818" size="2" pos="34" show="44818" value="af12"/>
    <field name="tcp.dstport" showname="Destination Port: 4497" size="2" pos="36" show="4497" value="1191"/>
    <field name="tcp.port" showname="Source or Destination Port: 44818" hide="yes" size="2" pos="34" show="44818" value="af12"/>
    <field name="tcp.port" showname="Source or Destination Port: 4497" hide="yes" size="2" pos="36" show="4497" value="1191"/>
    <field name="tcp.stream" showname="Stream index: 2" size="0" pos="34" show="2"/>
    <field name="tcp.len" showname="TCP Segment Len: 110" size="1" pos="46" show="110" value="50"/>
    <field name="tcp.seq" showname="Sequence number: 79    (relative sequence number)" size="4" pos="38" show="79" value="81998829"/>
    <field name="tcp.seq_raw" showname="Sequence number (raw): 2174322729" size="4" pos="38" show="2174322729" value="81998829"/>
    <field name="tcp.nxtseq" showname="Next sequence number: 189    (relative sequence number)" size="0" pos="34" show="189"/>
    <field name="tcp.ack" showname="Acknowledgment number: 153    (relative ack number)" size="4" pos="42" show="153" value="53e85056"/>
    <field name="tcp.ack_raw" showname="Acknowledgment number (raw): 1407733846" size="4" pos="42" show="1407733846" value="53e85056"/>
    <field name="tcp.hdr_len" showname="0101 .... = Header Length: 20 bytes (5)" size="1" pos="46" show="20" value="50"/>
    <field name="tcp.flags" showname="Flags: 0x010 (ACK)" size="2" pos="46" show="0x00000010" value="10" unmaskedvalue="5010">
      <field name="tcp.flags.res" showname="000. .... .... = Reserved: Not set" size="1" pos="46" show="0" value="0" unmaskedvalue="50"/>
      <field name="tcp.flags.ns" showname="...0 .... .... = Nonce: Not set" size="1" pos="46" show="0" value="0" unmaskedvalue="50"/>
      <field name="tcp.flags.cwr" showname=".... 0... .... = Congestion Window Reduced (CWR): Not set" size="1" pos="47" show="0" value="0" unmaskedvalue="10"/>
      <field name="tcp.flags.ecn" showname=".... .0.. .... = ECN-Echo: Not set" size="1" pos="47" show="0" value="0" unmaskedvalue="10"/>
      <field name="tcp.flags.urg" showname=".... ..0. .... = Urgent: Not set" size="1" pos="47" show="0" value="0" unmaskedvalue="10"/>
      <field name="tcp.flags.ack" showname=".... ...1 .... = Acknowledgment: Set" size="1" pos="47" show="1" value="1" unmaskedvalue="10"/>
      <field name="tcp.flags.push" showname=".... .... 0... = Push: Not set" size="1" pos="47" show="0" value="0" unmaskedvalue="10"/>
      <field name="tcp.flags.reset" showname=".... .... .0.. = Reset: Not set" size="1" pos="47" show="0" value="0" unmaskedvalue="10"/>
      <field name="tcp.flags.syn" showname=".... .... ..0. = Syn: Not set" size="1" pos="47" show="0" value="0" unmaskedvalue="10"/>
      <field name="tcp.flags.fin" showname=".... .... ...0 = Fin: Not set" size="1" pos="47" show="0" value="0" unmaskedvalue="10"/>
      <field name="tcp.flags.str" showname="TCP Flags: \xc2\xb7\xc2\xb7\xc2\xb7\xc2\xb7\xc2\xb7\xc2\xb7\xc2\xb7A\xc2\xb7\xc2\xb7\xc2\xb7\xc2\xb7" size="2" pos="46" show="\xc2\xb7\xc2\xb7\xc2\xb7\xc2\xb7\xc2\xb7\xc2\xb7\xc2\xb7A\xc2\xb7\xc2\xb7\xc2\xb7\xc2\xb7" value="5010"/>
    </field>
    <field name="tcp.window_size_value" showname="Window size value: 16000" size="2" pos="48" show="16000" value="3e80"/>
    <field name="tcp.window_size" showname="Calculated window size: 16000" size="2" pos="48" show="16000" value="3e80"/>
    <field name="tcp.window_size_scalefactor" showname="Window size scaling factor: -1 (unknown)" size="2" pos="48" show="-1" value="3e80"/>
    <field name="tcp.checksum" showname="Checksum: 0x04c9 [unverified]" size="2" pos="50" show="0x000004c9" value="04c9"/>
    <field name="tcp.checksum.status" showname="Checksum Status: Unverified" size="0" pos="50" show="2"/>
    <field name="tcp.urgent_pointer" showname="Urgent pointer: 0" size="2" pos="52" show="0" value="0000"/>
    <field name="tcp.analysis" showname="SEQ/ACK analysis" size="0" pos="34" show="" value="">
      <field name="tcp.analysis.acks_frame" showname="This is an ACK to the segment in frame: 7" size="0" pos="34" show="7"/>
      <field name="tcp.analysis.ack_rtt" showname="The RTT to ACK the segment was: 0.009361000 seconds" size="0" pos="34" show="0.009361000"/>
      <field name="tcp.analysis.bytes_in_flight" showname="Bytes in flight: 110" size="0" pos="34" show="110"/>
      <field name="tcp.analysis.push_bytes_sent" showname="Bytes sent since last PSH flag: 188" size="0" pos="34" show="188"/>
    </field>
    <field name="" show="Timestamps" size="0" pos="34">
      <field name="tcp.time_relative" showname="Time since first frame in this TCP stream: 0.024420000 seconds" size="0" pos="34" show="0.024420000"/>
      <field name="tcp.time_delta" showname="Time since previous frame in this TCP stream: 0.009361000 seconds" size="0" pos="34" show="0.009361000"/>
    </field>
    <field name="tcp.payload" showname="TCP payload (110 bytes)" size="110" pos="54" show="6f:00:56:00:01:00:00:00:00:00:00:00:c0:a8:64:1c:00:00:48:57:00:00:00:00:00:00:00:00:00:00:04:00:00:00:00:00:b2:00:1e:00:d4:00:00:00:02:00:a2:f1:03:00:a2:f1:0e:00:01:00:22:f5:13:00:10:27:00:00:10:27:00:00:00:00:00:80:10:00:00:02:08:ae:00:00:00:00:00:00:00:00:00:00:00:00:01:80:10:00:00:02:08:ae:ef:c0:05:80:00:00:00:00:00:00:00:00" value="6f0056000100000000000000c0a8641c0000485700000000000000000000040000000000b2001e00d40000000200a2f10300a2f10e00010022f513001027000010270000000000801000000208ae00000000000000000000000001801000000208aeefc005800000000000000000"/>
    <field name="tcp.pdu.size" showname="PDU Size: 110" size="110" pos="54" show="110" value="6f0056000100000000000000c0a8641c0000485700000000000000000000040000000000b2001e00d40000000200a2f10300a2f10e00010022f513001027000010270000000000801000000208ae00000000000000000000000001801000000208aeefc005800000000000000000"/>
  </proto>
  <proto name="enip" showname="EtherNet/IP (Industrial Protocol), Session: 0x00000001, Send RR Data" size="110" pos="54">
    <field name="" show="Encapsulation Header" size="24" pos="54" value="6f0056000100000000000000c0a8641c0000485700000000">
      <field name="enip.command" showname="Command: Send RR Data (0x006f)" size="2" pos="54" show="0x0000006f" value="6f00"/>
      <field name="enip.length" showname="Length: 86" size="2" pos="56" show="86" value="5600"/>
      <field name="enip.session" showname="Session Handle: 0x00000001" size="4" pos="58" show="0x00000001" value="01000000"/>
      <field name="enip.status" showname="Status: Success (0x00000000)" size="4" pos="62" show="0x00000000" value="00000000"/>
      <field name="enip.context" showname="Sender Context: c0a8641c00004857" size="8" pos="66" show="c0:a8:64:1c:00:00:48:57" value="c0a8641c00004857"/>
      <field name="enip.options" showname="Options: 0x00000000" size="4" pos="74" show="0x00000000" value="00000000"/>
    </field>
    <field name="" show="Command Specific Data" size="86" pos="78" value="000000000000040000000000b2001e00d40000000200a2f10300a2f10e00010022f513001027000010270000000000801000000208ae00000000000000000000000001801000000208aeefc005800000000000000000">
      <field name="enip.srrd.iface" showname="Interface Handle: CIP (0x00000000)" size="4" pos="78" show="0x00000000" value="00000000"/>
      <field name="enip.timeout" showname="Timeout: 0" size="2" pos="82" show="0" value="0000"/>
      <field name="enip.cpf.itemcount" showname="Item Count: 4" size="2" pos="84" show="4" value="0400">
        <field name="enip.cpf.typeid" showname="Type ID: Null Address Item (0x0000)" size="2" pos="86" show="0x00000000" value="0000">
          <field name="enip.cpf.length" showname="Length: 0" size="2" pos="88" show="0" value="0000"/>
        </field>
        <field name="enip.cpf.typeid" showname="Type ID: Unconnected Data Item (0x00b2)" size="2" pos="90" show="0x000000b2" value="b200">
          <field name="enip.cpf.length" showname="Length: 30" size="2" pos="92" show="30" value="1e00"/>
        </field>
        <field name="enip.cpf.typeid" showname="Type ID: Socket Address Info O-&gt;T (0x8000)" size="2" pos="124" show="0x00008000" value="0080">
          <field name="enip.cpf.length" showname="Length: 16" size="2" pos="126" show="16" value="1000"/>
          <field name="enip.sinfamily" showname="sin_family: 2" size="2" pos="128" show="2" value="0002"/>
          <field name="enip.sinport" showname="sin_port: 2222" size="2" pos="130" show="2222" value="08ae"/>
          <field name="enip.sinaddr" showname="sin_addr: 0.0.0.0" size="4" pos="132" show="0.0.0.0" value="00000000"/>
          <field name="enip.sinzero" showname="sin_zero: 0000000000000000" size="8" pos="136" show="00:00:00:00:00:00:00:00" value="0000000000000000"/>
        </field>
        <field name="enip.cpf.typeid" showname="Type ID: Socket Address Info T-&gt;O (0x8001)" size="2" pos="144" show="0x00008001" value="0180">
          <field name="enip.cpf.length" showname="Length: 16" size="2" pos="146" show="16" value="1000"/>
          <field name="enip.sinfamily" showname="sin_family: 2" size="2" pos="148" show="2" value="0002"/>
          <field name="enip.sinport" showname="sin_port: 2222" size="2" pos="150" show="2222" value="08ae"/>
          <field name="enip.sinaddr" showname="sin_addr: 239.192.5.128" size="4" pos="152" show="239.192.5.128" value="efc00580"/>
          <field name="enip.sinzero" showname="sin_zero: 0000000000000000" size="8" pos="156" show="00:00:00:00:00:00:00:00" value="0000000000000000"/>
        </field>
      </field>
      <field name="enip.response_to" showname="Request In: 7" size="0" pos="78" show="7"/>
      <field name="enip.time" showname="Time: 0.009361000 seconds" size="0" pos="78" show="0.009361000"/>
    </field>
  </proto>
  <proto name="cip" showname="Common Industrial Protocol" size="30" pos="94">
    <field name="cip.service" showname="Service: Unknown Service (0x54) (Response)" size="1" pos="94" show="0x000000d4" value="d4">
      <field name="cip.rr" showname="1... .... = Request/Response: Response (0x1)" size="1" pos="94" show="0x00000001" value="1" unmaskedvalue="d4"/>
      <field name="cip.sc" showname=".101 0100 = Service: Unknown (0x54)" size="1" pos="94" show="0x00000054" value="54" unmaskedvalue="d4"/>
    </field>
    <field name="" show="Status: Success: " size="2" pos="96" value="0000">
      <field name="cip.genstat" showname="General Status: Success (0x00)" size="1" pos="96" show="0" value="00"/>
      <field name="cip.addstat_size" showname="Additional Status Size: 0 words" size="1" pos="97" show="0" value="00"/>
    </field>
    <field name="cip.request_path_size" showname="Request Path Size: 2 words" size="0" pos="94" show="2"/>
    <field name="" show="Request Path: Connection Manager, Instance: 0x01" size="0" pos="94">
      <field name="cip.path_segment" showname="Path Segment: 0x20 (8-Bit Class Segment)" size="0" pos="94" show="0x00000020">
        <field name="cip.path_segment.type" showname="001. .... = Path Segment Type: Logical Segment (1)" size="0" pos="0" show="1"/>
        <field name="cip.logical_segment.type" showname="...0 00.. = Logical Segment Type: Class ID (0)" size="0" pos="0" show="0"/>
        <field name="cip.logical_segment.format" showname=".... ..00 = Logical Segment Format: 8-bit Logical Segment (0)" size="0" pos="0" show="0"/>
        <field name="cip.class" showname="Class: Connection Manager (0x06)" size="0" pos="0" show="6"/>
      </field>
      <field name="cip.path_segment" showname="Path Segment: 0x24 (8-Bit Instance Segment)" size="0" pos="94" show="0x00000024">
        <field name="cip.path_segment.type" showname="001. .... = Path Segment Type: Logical Segment (1)" size="0" pos="0" show="1"/>
        <field name="cip.logical_segment.type" showname="...0 01.. = Logical Segment Type: Instance ID (1)" size="0" pos="0" show="1"/>
        <field name="cip.logical_segment.format" showname=".... ..00 = Logical Segment Format: 8-bit Logical Segment (0)" size="0" pos="0" show="0"/>
        <field name="cip.instance" showname="Instance: 0x01" size="0" pos="0" show="0x00000001"/>
      </field>
    </field>
  </proto>
  <proto name="cipcm" showname="CIP Connection Manager" size="30" pos="94">
    <field name="" show="Service: Forward Open (Response)" size="1" pos="94" value="d4">
      <field name="cip.rr" showname="1... .... = Request/Response: Response (0x1)" size="1" pos="94" show="0x00000001" value="1" unmaskedvalue="d4"/>
      <field name="cip.cm.sc" showname=".101 0100 = Service: Forward Open (0x54)" size="1" pos="94" show="0x00000054" value="54" unmaskedvalue="d4"/>
    </field>
    <field name="" show="Command Specific Data" size="26" pos="98" value="0200a2f10300a2f10e00010022f5130010270000102700000000">
      <field name="cip.cm.ot_connid" showname="O-&gt;T Network Connection ID: 0xf1a20002" size="4" pos="98" show="0xf1a20002" value="0200a2f1"/>
      <field name="cip.cm.to_connid" showname="T-&gt;O Network Connection ID: 0xf1a20003" size="4" pos="102" show="0xf1a20003" value="0300a2f1"/>
      <field name="cip.cm.conn_serial_num" showname="Connection Serial Number: 0x000e" size="2" pos="106" show="0x0000000e" value="0e00"/>
      <field name="cip.cm.vendor" showname="Originator Vendor ID: Rockwell Automation/Allen-Bradley (0x0001)" size="2" pos="108" show="1" value="0100"/>
      <field name="cip.cm.orig_serial_num" showname="Originator Serial Number: 0x0013f522" size="4" pos="110" show="0x0013f522" value="22f51300"/>
      <field name="cip.cm.otapi" showname="O-&gt;T API: 10.000ms" size="4" pos="114" show="10000" value="10270000"/>
      <field name="cip.cm.toapi" showname="T-&gt;O API: 10.000ms" size="4" pos="118" show="10000" value="10270000"/>
      <field name="cip.cm.app_reply_size" showname="Application Reply Size: 0 words" size="1" pos="122" show="0" value="00"/>
      <field name="cip.reserved" showname="Reserved: 0x00" size="1" pos="123" show="0x00000000" value="00"/>
    </field>
  </proto>
</packet>


</pdml>
